

Microchip MPLAB XC8 Assembler V2.36 build 20220127204148 
                                                                                               Thu Apr 07 17:48:07 2022

Microchip MPLAB XC8 C Compiler v2.36 (Free license) build 20220127204148 Og1 
     1                           	processor	16F877A
     2                           	pagewidth 120
     3                           	opt	flic
     4                           	psect	idataCOMMON,global,class=CODE,delta=2,noexec
     5                           	psect	idataBANK0,global,class=CODE,delta=2,noexec
     6                           	psect	idataBANK1,global,class=CODE,delta=2,noexec
     7                           	psect	strings,global,class=STRING,delta=2,noexec
     8                           	psect	stringtext,global,reloc=256,class=STRCODE,delta=2,noexec
     9                           	psect	cinit,global,class=CODE,merge=1,delta=2
    10                           	psect	bssCOMMON,global,class=COMMON,space=1,delta=1,noexec
    11                           	psect	dataCOMMON,global,class=COMMON,space=1,delta=1,noexec
    12                           	psect	bssBANK0,global,class=BANK0,space=1,delta=1,noexec
    13                           	psect	dataBANK0,global,class=BANK0,space=1,delta=1,noexec
    14                           	psect	bssBANK1,global,class=BANK1,space=1,delta=1,noexec
    15                           	psect	dataBANK1,global,class=BANK1,space=1,delta=1,noexec
    16                           	psect	inittext,global,class=CODE,delta=2
    17                           	psect	clrtext,global,class=CODE,delta=2
    18                           	psect	cstackCOMMON,global,class=COMMON,space=1,delta=1,noexec
    19                           	psect	cstackBANK0,global,class=BANK0,space=1,delta=1,noexec
    20                           	psect	maintext,global,class=CODE,split=1,delta=2
    21                           	psect	text1,local,class=CODE,merge=1,delta=2
    22                           	psect	text2,local,class=CODE,merge=1,delta=2,group=2
    23                           	psect	text3,local,class=CODE,merge=1,delta=2
    24                           	psect	text4,local,class=CODE,merge=1,delta=2
    25                           	psect	text5,local,class=CODE,merge=1,delta=2
    26                           	psect	text6,local,class=CODE,merge=1,delta=2
    27                           	psect	text7,local,class=CODE,merge=1,delta=2
    28                           	psect	text8,local,class=CODE,merge=1,delta=2
    29                           	psect	text9,local,class=CODE,merge=1,delta=2,group=2
    30                           	psect	text10,local,class=CODE,merge=1,delta=2
    31                           	psect	text11,local,class=CODE,merge=1,delta=2,group=1
    32                           	psect	text12,local,class=CODE,merge=1,delta=2
    33                           	psect	text13,local,class=CODE,merge=1,delta=2
    34                           	psect	text14,local,class=CODE,merge=1,delta=2
    35                           	psect	text15,local,class=CODE,merge=1,delta=2,group=1
    36                           	psect	text16,local,class=CODE,merge=1,delta=2
    37                           	psect	text17,local,class=CODE,merge=1,delta=2
    38                           	psect	text18,local,class=CODE,merge=1,delta=2
    39                           	psect	text19,local,class=CODE,merge=1,delta=2
    40                           	psect	text20,local,class=CODE,merge=1,delta=2
    41                           	psect	text21,local,class=CODE,merge=1,delta=2
    42                           	psect	text22,local,class=CODE,merge=1,delta=2
    43                           	psect	text23,local,class=CODE,merge=1,delta=2
    44                           	psect	text24,local,class=CODE,merge=1,delta=2
    45                           	psect	text25,local,class=CODE,merge=1,delta=2
    46                           	psect	text26,local,class=CODE,merge=1,delta=2
    47                           	psect	text27,local,class=CODE,merge=1,delta=2
    48                           	psect	text28,local,class=CODE,merge=1,delta=2
    49                           	psect	text29,local,class=CODE,merge=1,delta=2
    50                           	psect	text30,local,class=CODE,merge=1,delta=2
    51                           	psect	text31,local,class=CODE,merge=1,delta=2
    52                           	psect	text32,local,class=CODE,merge=1,delta=2,group=1
    53                           	psect	text33,local,class=CODE,merge=1,delta=2,group=1
    54                           	psect	text34,local,class=CODE,merge=1,delta=2
    55                           	psect	text35,local,class=CODE,merge=1,delta=2
    56                           	psect	text36,local,class=CODE,merge=1,delta=2,group=2
    57                           	psect	text37,local,class=CODE,merge=1,delta=2
    58                           	psect	text38,local,class=CODE,merge=1,delta=2
    59                           	psect	text39,local,class=CODE,merge=1,delta=2
    60                           	psect	text40,local,class=CODE,merge=1,delta=2
    61                           	psect	text41,local,class=CODE,merge=1,delta=2
    62                           	psect	text42,local,class=CODE,merge=1,delta=2,group=1
    63                           	psect	text43,local,class=CODE,merge=1,delta=2
    64                           	psect	intentry,global,class=CODE,delta=2
    65                           	psect	idloc,global,abs,ovrld,class=IDLOC,space=5,delta=2,noexec
    66                           	psect	config,global,abs,ovrld,class=CONFIG,space=4,delta=2,noexec
    67                           	dabs	1,0x7E,2
    68  0000                     
    69                           ; Version 2.40
    70                           ; Generated 17/11/2021 GMT
    71                           ; 
    72                           ; Copyright © 2021, Microchip Technology Inc. and its subsidiaries ("Microchip")
    73                           ; All rights reserved.
    74                           ; 
    75                           ; This software is developed by Microchip Technology Inc. and its subsidiaries ("Microch
      +                          ip").
    76                           ; 
    77                           ; Redistribution and use in source and binary forms, with or without modification, are
    78                           ; permitted provided that the following conditions are met:
    79                           ; 
    80                           ;     1. Redistributions of source code must retain the above copyright notice, this lis
      +                          t of
    81                           ;        conditions and the following disclaimer.
    82                           ; 
    83                           ;     2. Redistributions in binary form must reproduce the above copyright notice, this 
      +                          list
    84                           ;        of conditions and the following disclaimer in the documentation and/or other
    85                           ;        materials provided with the distribution. Publication is not required when
    86                           ;        this file is used in an embedded application.
    87                           ; 
    88                           ;     3. Microchip's name may not be used to endorse or promote products derived from th
      +                          is
    89                           ;        software without specific prior written permission.
    90                           ; 
    91                           ; THIS SOFTWARE IS PROVIDED BY MICROCHIP "AS IS" AND ANY EXPRESS OR IMPLIED WARRANTIES,
    92                           ; INCLUDING, BUT NOT LIMITED TO, THE IMPLIED WARRANTIES OF MERCHANTABILITY AND FITNESS F
      +                          OR
    93                           ; PURPOSE ARE DISCLAIMED.  IN NO EVENT SHALL MICROCHIP BE LIABLE FOR ANY DIRECT, INDIREC
      +                          T,
    94                           ; INCIDENTAL, SPECIAL, EXEMPLARY, OR CONSEQUENTIAL DAMAGES (INCLUDING BUT NOT LIMITED TO
    95                           ; PROCUREMENT OF SUBSTITUTE GOODS OR SERVICES; LOSS OF USE, DATA OR PROFITS; OR BUSINESS
    96                           ; INTERRUPTION) HOWSOEVER CAUSED AND ON ANY THEORY OF LIABILITY, WHETHER IN CONTRACT, ST
      +                          RICT
    97                           ; LIABILITY, OR TORT (INCLUDING NEGLIGENCE OR OTHERWISE) ARISING IN ANY WAY OUT OF THE U
      +                          SE OF
    98                           ; THIS SOFTWARE, EVEN IF ADVISED OF THE POSSIBILITY OF SUCH DAMAGE.
    99                           ; 
   100                           ; 
   101                           ; Code-generator required, PIC16F877A Definitions
   102                           ; 
   103                           ; SFR Addresses
   104  0000                     	;# 
   105  0001                     	;# 
   106  0002                     	;# 
   107  0003                     	;# 
   108  0004                     	;# 
   109  0005                     	;# 
   110  0006                     	;# 
   111  0007                     	;# 
   112  0008                     	;# 
   113  0009                     	;# 
   114  000A                     	;# 
   115  000B                     	;# 
   116  000C                     	;# 
   117  000D                     	;# 
   118  000E                     	;# 
   119  000E                     	;# 
   120  000F                     	;# 
   121  0010                     	;# 
   122  0011                     	;# 
   123  0012                     	;# 
   124  0013                     	;# 
   125  0014                     	;# 
   126  0015                     	;# 
   127  0015                     	;# 
   128  0016                     	;# 
   129  0017                     	;# 
   130  0018                     	;# 
   131  0019                     	;# 
   132  001A                     	;# 
   133  001B                     	;# 
   134  001B                     	;# 
   135  001C                     	;# 
   136  001D                     	;# 
   137  001E                     	;# 
   138  001F                     	;# 
   139  0081                     	;# 
   140  0085                     	;# 
   141  0086                     	;# 
   142  0087                     	;# 
   143  0088                     	;# 
   144  0089                     	;# 
   145  008C                     	;# 
   146  008D                     	;# 
   147  008E                     	;# 
   148  0091                     	;# 
   149  0092                     	;# 
   150  0093                     	;# 
   151  0094                     	;# 
   152  0098                     	;# 
   153  0099                     	;# 
   154  009C                     	;# 
   155  009D                     	;# 
   156  009E                     	;# 
   157  009F                     	;# 
   158  010C                     	;# 
   159  010D                     	;# 
   160  010E                     	;# 
   161  010F                     	;# 
   162  018C                     	;# 
   163  018D                     	;# 
   164  0000                     	;# 
   165  0001                     	;# 
   166  0002                     	;# 
   167  0003                     	;# 
   168  0004                     	;# 
   169  0005                     	;# 
   170  0006                     	;# 
   171  0007                     	;# 
   172  0008                     	;# 
   173  0009                     	;# 
   174  000A                     	;# 
   175  000B                     	;# 
   176  000C                     	;# 
   177  000D                     	;# 
   178  000E                     	;# 
   179  000E                     	;# 
   180  000F                     	;# 
   181  0010                     	;# 
   182  0011                     	;# 
   183  0012                     	;# 
   184  0013                     	;# 
   185  0014                     	;# 
   186  0015                     	;# 
   187  0015                     	;# 
   188  0016                     	;# 
   189  0017                     	;# 
   190  0018                     	;# 
   191  0019                     	;# 
   192  001A                     	;# 
   193  001B                     	;# 
   194  001B                     	;# 
   195  001C                     	;# 
   196  001D                     	;# 
   197  001E                     	;# 
   198  001F                     	;# 
   199  0081                     	;# 
   200  0085                     	;# 
   201  0086                     	;# 
   202  0087                     	;# 
   203  0088                     	;# 
   204  0089                     	;# 
   205  008C                     	;# 
   206  008D                     	;# 
   207  008E                     	;# 
   208  0091                     	;# 
   209  0092                     	;# 
   210  0093                     	;# 
   211  0094                     	;# 
   212  0098                     	;# 
   213  0099                     	;# 
   214  009C                     	;# 
   215  009D                     	;# 
   216  009E                     	;# 
   217  009F                     	;# 
   218  010C                     	;# 
   219  010D                     	;# 
   220  010E                     	;# 
   221  010F                     	;# 
   222  018C                     	;# 
   223  018D                     	;# 
   224  0000                     	;# 
   225  0001                     	;# 
   226  0002                     	;# 
   227  0003                     	;# 
   228  0004                     	;# 
   229  0005                     	;# 
   230  0006                     	;# 
   231  0007                     	;# 
   232  0008                     	;# 
   233  0009                     	;# 
   234  000A                     	;# 
   235  000B                     	;# 
   236  000C                     	;# 
   237  000D                     	;# 
   238  000E                     	;# 
   239  000E                     	;# 
   240  000F                     	;# 
   241  0010                     	;# 
   242  0011                     	;# 
   243  0012                     	;# 
   244  0013                     	;# 
   245  0014                     	;# 
   246  0015                     	;# 
   247  0015                     	;# 
   248  0016                     	;# 
   249  0017                     	;# 
   250  0018                     	;# 
   251  0019                     	;# 
   252  001A                     	;# 
   253  001B                     	;# 
   254  001B                     	;# 
   255  001C                     	;# 
   256  001D                     	;# 
   257  001E                     	;# 
   258  001F                     	;# 
   259  0081                     	;# 
   260  0085                     	;# 
   261  0086                     	;# 
   262  0087                     	;# 
   263  0088                     	;# 
   264  0089                     	;# 
   265  008C                     	;# 
   266  008D                     	;# 
   267  008E                     	;# 
   268  0091                     	;# 
   269  0092                     	;# 
   270  0093                     	;# 
   271  0094                     	;# 
   272  0098                     	;# 
   273  0099                     	;# 
   274  009C                     	;# 
   275  009D                     	;# 
   276  009E                     	;# 
   277  009F                     	;# 
   278  010C                     	;# 
   279  010D                     	;# 
   280  010E                     	;# 
   281  010F                     	;# 
   282  018C                     	;# 
   283  018D                     	;# 
   284  0000                     	;# 
   285  0001                     	;# 
   286  0002                     	;# 
   287  0003                     	;# 
   288  0004                     	;# 
   289  0005                     	;# 
   290  0006                     	;# 
   291  0007                     	;# 
   292  0008                     	;# 
   293  0009                     	;# 
   294  000A                     	;# 
   295  000B                     	;# 
   296  000C                     	;# 
   297  000D                     	;# 
   298  000E                     	;# 
   299  000E                     	;# 
   300  000F                     	;# 
   301  0010                     	;# 
   302  0011                     	;# 
   303  0012                     	;# 
   304  0013                     	;# 
   305  0014                     	;# 
   306  0015                     	;# 
   307  0015                     	;# 
   308  0016                     	;# 
   309  0017                     	;# 
   310  0018                     	;# 
   311  0019                     	;# 
   312  001A                     	;# 
   313  001B                     	;# 
   314  001B                     	;# 
   315  001C                     	;# 
   316  001D                     	;# 
   317  001E                     	;# 
   318  001F                     	;# 
   319  0081                     	;# 
   320  0085                     	;# 
   321  0086                     	;# 
   322  0087                     	;# 
   323  0088                     	;# 
   324  0089                     	;# 
   325  008C                     	;# 
   326  008D                     	;# 
   327  008E                     	;# 
   328  0091                     	;# 
   329  0092                     	;# 
   330  0093                     	;# 
   331  0094                     	;# 
   332  0098                     	;# 
   333  0099                     	;# 
   334  009C                     	;# 
   335  009D                     	;# 
   336  009E                     	;# 
   337  009F                     	;# 
   338  010C                     	;# 
   339  010D                     	;# 
   340  010E                     	;# 
   341  010F                     	;# 
   342  018C                     	;# 
   343  018D                     	;# 
   344  0000                     	;# 
   345  0001                     	;# 
   346  0002                     	;# 
   347  0003                     	;# 
   348  0004                     	;# 
   349  0005                     	;# 
   350  0006                     	;# 
   351  0007                     	;# 
   352  0008                     	;# 
   353  0009                     	;# 
   354  000A                     	;# 
   355  000B                     	;# 
   356  000C                     	;# 
   357  000D                     	;# 
   358  000E                     	;# 
   359  000E                     	;# 
   360  000F                     	;# 
   361  0010                     	;# 
   362  0011                     	;# 
   363  0012                     	;# 
   364  0013                     	;# 
   365  0014                     	;# 
   366  0015                     	;# 
   367  0015                     	;# 
   368  0016                     	;# 
   369  0017                     	;# 
   370  0018                     	;# 
   371  0019                     	;# 
   372  001A                     	;# 
   373  001B                     	;# 
   374  001B                     	;# 
   375  001C                     	;# 
   376  001D                     	;# 
   377  001E                     	;# 
   378  001F                     	;# 
   379  0081                     	;# 
   380  0085                     	;# 
   381  0086                     	;# 
   382  0087                     	;# 
   383  0088                     	;# 
   384  0089                     	;# 
   385  008C                     	;# 
   386  008D                     	;# 
   387  008E                     	;# 
   388  0091                     	;# 
   389  0092                     	;# 
   390  0093                     	;# 
   391  0094                     	;# 
   392  0098                     	;# 
   393  0099                     	;# 
   394  009C                     	;# 
   395  009D                     	;# 
   396  009E                     	;# 
   397  009F                     	;# 
   398  010C                     	;# 
   399  010D                     	;# 
   400  010E                     	;# 
   401  010F                     	;# 
   402  018C                     	;# 
   403  018D                     	;# 
   404  0000                     	;# 
   405  0001                     	;# 
   406  0002                     	;# 
   407  0003                     	;# 
   408  0004                     	;# 
   409  0005                     	;# 
   410  0006                     	;# 
   411  0007                     	;# 
   412  0008                     	;# 
   413  0009                     	;# 
   414  000A                     	;# 
   415  000B                     	;# 
   416  000C                     	;# 
   417  000D                     	;# 
   418  000E                     	;# 
   419  000E                     	;# 
   420  000F                     	;# 
   421  0010                     	;# 
   422  0011                     	;# 
   423  0012                     	;# 
   424  0013                     	;# 
   425  0014                     	;# 
   426  0015                     	;# 
   427  0015                     	;# 
   428  0016                     	;# 
   429  0017                     	;# 
   430  0018                     	;# 
   431  0019                     	;# 
   432  001A                     	;# 
   433  001B                     	;# 
   434  001B                     	;# 
   435  001C                     	;# 
   436  001D                     	;# 
   437  001E                     	;# 
   438  001F                     	;# 
   439  0081                     	;# 
   440  0085                     	;# 
   441  0086                     	;# 
   442  0087                     	;# 
   443  0088                     	;# 
   444  0089                     	;# 
   445  008C                     	;# 
   446  008D                     	;# 
   447  008E                     	;# 
   448  0091                     	;# 
   449  0092                     	;# 
   450  0093                     	;# 
   451  0094                     	;# 
   452  0098                     	;# 
   453  0099                     	;# 
   454  009C                     	;# 
   455  009D                     	;# 
   456  009E                     	;# 
   457  009F                     	;# 
   458  010C                     	;# 
   459  010D                     	;# 
   460  010E                     	;# 
   461  010F                     	;# 
   462  018C                     	;# 
   463  018D                     	;# 
   464  0000                     	;# 
   465  0001                     	;# 
   466  0002                     	;# 
   467  0003                     	;# 
   468  0004                     	;# 
   469  0005                     	;# 
   470  0006                     	;# 
   471  0007                     	;# 
   472  0008                     	;# 
   473  0009                     	;# 
   474  000A                     	;# 
   475  000B                     	;# 
   476  000C                     	;# 
   477  000D                     	;# 
   478  000E                     	;# 
   479  000E                     	;# 
   480  000F                     	;# 
   481  0010                     	;# 
   482  0011                     	;# 
   483  0012                     	;# 
   484  0013                     	;# 
   485  0014                     	;# 
   486  0015                     	;# 
   487  0015                     	;# 
   488  0016                     	;# 
   489  0017                     	;# 
   490  0018                     	;# 
   491  0019                     	;# 
   492  001A                     	;# 
   493  001B                     	;# 
   494  001B                     	;# 
   495  001C                     	;# 
   496  001D                     	;# 
   497  001E                     	;# 
   498  001F                     	;# 
   499  0081                     	;# 
   500  0085                     	;# 
   501  0086                     	;# 
   502  0087                     	;# 
   503  0088                     	;# 
   504  0089                     	;# 
   505  008C                     	;# 
   506  008D                     	;# 
   507  008E                     	;# 
   508  0091                     	;# 
   509  0092                     	;# 
   510  0093                     	;# 
   511  0094                     	;# 
   512  0098                     	;# 
   513  0099                     	;# 
   514  009C                     	;# 
   515  009D                     	;# 
   516  009E                     	;# 
   517  009F                     	;# 
   518  010C                     	;# 
   519  010D                     	;# 
   520  010E                     	;# 
   521  010F                     	;# 
   522  018C                     	;# 
   523  018D                     	;# 
   524  0000                     	;# 
   525  0001                     	;# 
   526  0002                     	;# 
   527  0003                     	;# 
   528  0004                     	;# 
   529  0005                     	;# 
   530  0006                     	;# 
   531  0007                     	;# 
   532  0008                     	;# 
   533  0009                     	;# 
   534  000A                     	;# 
   535  000B                     	;# 
   536  000C                     	;# 
   537  000D                     	;# 
   538  000E                     	;# 
   539  000E                     	;# 
   540  000F                     	;# 
   541  0010                     	;# 
   542  0011                     	;# 
   543  0012                     	;# 
   544  0013                     	;# 
   545  0014                     	;# 
   546  0015                     	;# 
   547  0015                     	;# 
   548  0016                     	;# 
   549  0017                     	;# 
   550  0018                     	;# 
   551  0019                     	;# 
   552  001A                     	;# 
   553  001B                     	;# 
   554  001B                     	;# 
   555  001C                     	;# 
   556  001D                     	;# 
   557  001E                     	;# 
   558  001F                     	;# 
   559  0081                     	;# 
   560  0085                     	;# 
   561  0086                     	;# 
   562  0087                     	;# 
   563  0088                     	;# 
   564  0089                     	;# 
   565  008C                     	;# 
   566  008D                     	;# 
   567  008E                     	;# 
   568  0091                     	;# 
   569  0092                     	;# 
   570  0093                     	;# 
   571  0094                     	;# 
   572  0098                     	;# 
   573  0099                     	;# 
   574  009C                     	;# 
   575  009D                     	;# 
   576  009E                     	;# 
   577  009F                     	;# 
   578  010C                     	;# 
   579  010D                     	;# 
   580  010E                     	;# 
   581  010F                     	;# 
   582  018C                     	;# 
   583  018D                     	;# 
   584  0000                     	;# 
   585  0001                     	;# 
   586  0002                     	;# 
   587  0003                     	;# 
   588  0004                     	;# 
   589  0005                     	;# 
   590  0006                     	;# 
   591  0007                     	;# 
   592  0008                     	;# 
   593  0009                     	;# 
   594  000A                     	;# 
   595  000B                     	;# 
   596  000C                     	;# 
   597  000D                     	;# 
   598  000E                     	;# 
   599  000E                     	;# 
   600  000F                     	;# 
   601  0010                     	;# 
   602  0011                     	;# 
   603  0012                     	;# 
   604  0013                     	;# 
   605  0014                     	;# 
   606  0015                     	;# 
   607  0015                     	;# 
   608  0016                     	;# 
   609  0017                     	;# 
   610  0018                     	;# 
   611  0019                     	;# 
   612  001A                     	;# 
   613  001B                     	;# 
   614  001B                     	;# 
   615  001C                     	;# 
   616  001D                     	;# 
   617  001E                     	;# 
   618  001F                     	;# 
   619  0081                     	;# 
   620  0085                     	;# 
   621  0086                     	;# 
   622  0087                     	;# 
   623  0088                     	;# 
   624  0089                     	;# 
   625  008C                     	;# 
   626  008D                     	;# 
   627  008E                     	;# 
   628  0091                     	;# 
   629  0092                     	;# 
   630  0093                     	;# 
   631  0094                     	;# 
   632  0098                     	;# 
   633  0099                     	;# 
   634  009C                     	;# 
   635  009D                     	;# 
   636  009E                     	;# 
   637  009F                     	;# 
   638  010C                     	;# 
   639  010D                     	;# 
   640  010E                     	;# 
   641  010F                     	;# 
   642  018C                     	;# 
   643  018D                     	;# 
   644  0000                     	;# 
   645  0001                     	;# 
   646  0002                     	;# 
   647  0003                     	;# 
   648  0004                     	;# 
   649  0005                     	;# 
   650  0006                     	;# 
   651  0007                     	;# 
   652  0008                     	;# 
   653  0009                     	;# 
   654  000A                     	;# 
   655  000B                     	;# 
   656  000C                     	;# 
   657  000D                     	;# 
   658  000E                     	;# 
   659  000E                     	;# 
   660  000F                     	;# 
   661  0010                     	;# 
   662  0011                     	;# 
   663  0012                     	;# 
   664  0013                     	;# 
   665  0014                     	;# 
   666  0015                     	;# 
   667  0015                     	;# 
   668  0016                     	;# 
   669  0017                     	;# 
   670  0018                     	;# 
   671  0019                     	;# 
   672  001A                     	;# 
   673  001B                     	;# 
   674  001B                     	;# 
   675  001C                     	;# 
   676  001D                     	;# 
   677  001E                     	;# 
   678  001F                     	;# 
   679  0081                     	;# 
   680  0085                     	;# 
   681  0086                     	;# 
   682  0087                     	;# 
   683  0088                     	;# 
   684  0089                     	;# 
   685  008C                     	;# 
   686  008D                     	;# 
   687  008E                     	;# 
   688  0091                     	;# 
   689  0092                     	;# 
   690  0093                     	;# 
   691  0094                     	;# 
   692  0098                     	;# 
   693  0099                     	;# 
   694  009C                     	;# 
   695  009D                     	;# 
   696  009E                     	;# 
   697  009F                     	;# 
   698  010C                     	;# 
   699  010D                     	;# 
   700  010E                     	;# 
   701  010F                     	;# 
   702  018C                     	;# 
   703  018D                     	;# 
   704  0000                     	;# 
   705  0001                     	;# 
   706  0002                     	;# 
   707  0003                     	;# 
   708  0004                     	;# 
   709  0005                     	;# 
   710  0006                     	;# 
   711  0007                     	;# 
   712  0008                     	;# 
   713  0009                     	;# 
   714  000A                     	;# 
   715  000B                     	;# 
   716  000C                     	;# 
   717  000D                     	;# 
   718  000E                     	;# 
   719  000E                     	;# 
   720  000F                     	;# 
   721  0010                     	;# 
   722  0011                     	;# 
   723  0012                     	;# 
   724  0013                     	;# 
   725  0014                     	;# 
   726  0015                     	;# 
   727  0015                     	;# 
   728  0016                     	;# 
   729  0017                     	;# 
   730  0018                     	;# 
   731  0019                     	;# 
   732  001A                     	;# 
   733  001B                     	;# 
   734  001B                     	;# 
   735  001C                     	;# 
   736  001D                     	;# 
   737  001E                     	;# 
   738  001F                     	;# 
   739  0081                     	;# 
   740  0085                     	;# 
   741  0086                     	;# 
   742  0087                     	;# 
   743  0088                     	;# 
   744  0089                     	;# 
   745  008C                     	;# 
   746  008D                     	;# 
   747  008E                     	;# 
   748  0091                     	;# 
   749  0092                     	;# 
   750  0093                     	;# 
   751  0094                     	;# 
   752  0098                     	;# 
   753  0099                     	;# 
   754  009C                     	;# 
   755  009D                     	;# 
   756  009E                     	;# 
   757  009F                     	;# 
   758  010C                     	;# 
   759  010D                     	;# 
   760  010E                     	;# 
   761  010F                     	;# 
   762  018C                     	;# 
   763  018D                     	;# 
   764  0000                     	;# 
   765  0001                     	;# 
   766  0002                     	;# 
   767  0003                     	;# 
   768  0004                     	;# 
   769  0005                     	;# 
   770  0006                     	;# 
   771  0007                     	;# 
   772  0008                     	;# 
   773  0009                     	;# 
   774  000A                     	;# 
   775  000B                     	;# 
   776  000C                     	;# 
   777  000D                     	;# 
   778  000E                     	;# 
   779  000E                     	;# 
   780  000F                     	;# 
   781  0010                     	;# 
   782  0011                     	;# 
   783  0012                     	;# 
   784  0013                     	;# 
   785  0014                     	;# 
   786  0015                     	;# 
   787  0015                     	;# 
   788  0016                     	;# 
   789  0017                     	;# 
   790  0018                     	;# 
   791  0019                     	;# 
   792  001A                     	;# 
   793  001B                     	;# 
   794  001B                     	;# 
   795  001C                     	;# 
   796  001D                     	;# 
   797  001E                     	;# 
   798  001F                     	;# 
   799  0081                     	;# 
   800  0085                     	;# 
   801  0086                     	;# 
   802  0087                     	;# 
   803  0088                     	;# 
   804  0089                     	;# 
   805  008C                     	;# 
   806  008D                     	;# 
   807  008E                     	;# 
   808  0091                     	;# 
   809  0092                     	;# 
   810  0093                     	;# 
   811  0094                     	;# 
   812  0098                     	;# 
   813  0099                     	;# 
   814  009C                     	;# 
   815  009D                     	;# 
   816  009E                     	;# 
   817  009F                     	;# 
   818  010C                     	;# 
   819  010D                     	;# 
   820  010E                     	;# 
   821  010F                     	;# 
   822  018C                     	;# 
   823  018D                     	;# 
   824                           
   825                           	psect	idataCOMMON
   826  07FF                     __pidataCOMMON:
   827                           
   828                           ;initializer for read_digital_keypad@once
   829  07FF  3401               	retlw	1
   830                           
   831                           	psect	idataBANK0
   832  17E0                     __pidataBANK0:
   833                           
   834                           ;initializer for _menu
   835  17E0  34E5               	retlw	low (STR_12| (0+32768))
   836  17E1  3488               	retlw	high (STR_12| (0+32768))
   837  17E2  34DB               	retlw	low (STR_13| (0+32768))
   838  17E3  3488               	retlw	high (STR_13| (0+32768))
   839  17E4  34A5               	retlw	low (STR_14| (0+32768))
   840  17E5  3488               	retlw	high (STR_14| (0+32768))
   841                           
   842                           ;initializer for main@F1018
   843  17E6  344F               	retlw	79
   844  17E7  344E               	retlw	78
   845  17E8  3400               	retlw	0
   846                           
   847                           ;initializer for _pos
   848  17E9  34FF               	retlw	255
   849                           
   850                           	psect	idataBANK1
   851  0935                     __pidataBANK1:
   852                           
   853                           ;initializer for _gear
   854  0935  340F               	retlw	low (STR_1| (0+32768))
   855  0936  3489               	retlw	high (STR_1| (0+32768))
   856  0937  3415               	retlw	low (STR_2| (0+32768))
   857  0938  3489               	retlw	high (STR_2| (0+32768))
   858  0939  3400               	retlw	low (STR_3| (0+32768))
   859  093A  3489               	retlw	high (STR_3| (0+32768))
   860  093B  3403               	retlw	low (STR_4| (0+32768))
   861  093C  3489               	retlw	high (STR_4| (0+32768))
   862  093D  3406               	retlw	low (STR_5| (0+32768))
   863  093E  3489               	retlw	high (STR_5| (0+32768))
   864  093F  3409               	retlw	low (STR_6| (0+32768))
   865  0940  3489               	retlw	high (STR_6| (0+32768))
   866  000B                     _INTCONbits	set	11
   867  0003                     _STATUSbits	set	3
   868  0008                     _PORTD	set	8
   869  0013                     _SSPBUF	set	19
   870  001E                     _ADRESH	set	30
   871  0006                     _PORTB	set	6
   872  0061                     _TMR2IF	set	97
   873  0091                     _T2CKPS1	set	145
   874  0090                     _T2CKPS0	set	144
   875  0092                     _TMR2ON	set	146
   876  005F                     _GIE	set	95
   877  005E                     _PEIE	set	94
   878  0049                     _RE1	set	73
   879  004A                     _RE2	set	74
   880  00A5                     _SSPEN	set	165
   881  00A3                     _SSPM3	set	163
   882  00FA                     _nDONE	set	250
   883  00FA                     _GO	set	250
   884  00F8                     _ADON	set	248
   885  0092                     _PR2	set	146
   886  0088                     _TRISD	set	136
   887  0091                     _SSPCON2	set	145
   888  0093                     _SSPADD	set	147
   889  009E                     _ADRESL	set	158
   890  0086                     _TRISB	set	134
   891  0461                     _TMR2IE	set	1121
   892  0449                     _TRISE1	set	1097
   893  044A                     _TRISE2	set	1098
   894  048E                     _ACKSTAT	set	1166
   895  048C                     _ACKEN	set	1164
   896  048D                     _ACKDT	set	1165
   897  048B                     _RCEN	set	1163
   898  048A                     _PEN	set	1162
   899  0488                     _SEN	set	1160
   900  04A2                     _R_nW	set	1186
   901  04FF                     _ADFM	set	1279
   902  010C                     _EEDATA	set	268
   903  010D                     _EEADR	set	269
   904  018D                     _EECON2	set	397
   905  018C                     _EECON1	set	396
   906  018C                     _EECON1bits	set	396
   907                           
   908                           	psect	strings
   909  0918                     __pstrings:
   910  0918                     stringtab:
   911  0918                     __stringtab:
   912                           
   913                           ;	String table - string pointers are 2 bytes each
   914  0918  1BFF               	btfsc	btemp+1,7
   915  0919  2922               	ljmp	stringcode
   916  091A  1383               	bcf	3,7
   917  091B  187F               	btfsc	btemp+1,0
   918  091C  1783               	bsf	3,7
   919  091D  0800               	movf	0,w
   920  091E  0A84               	incf	4,f
   921  091F  1903               	skipnz
   922  0920  0AFF               	incf	btemp+1,f
   923  0921  0008               	return
   924  0922                     stringcode:
   925  0922  087F               	movf	btemp+1,w
   926  0923  397F               	andlw	127
   927  0924  008A               	movwf	10
   928  0925  0804               	movf	4,w
   929  0926  0A84               	incf	4,f
   930  0927  1903               	skipnz
   931  0928  0AFF               	incf	btemp+1,f
   932  0929  0082               	movwf	2
   933  092A                     __stringbase:
   934  092A                     __end_of__stringtab:
   935                           
   936                           	psect	stringtext
   937  0800                     __pstringtext:
   938  0800                     STR_24:
   939  0800  3445               	retlw	69	;'E'
   940  0801  346E               	retlw	110	;'n'
   941  0802  3474               	retlw	116	;'t'
   942  0803  3465               	retlw	101	;'e'
   943  0804  3472               	retlw	114	;'r'
   944  0805  3420               	retlw	32	;' '
   945  0806  346E               	retlw	110	;'n'
   946  0807  3465               	retlw	101	;'e'
   947  0808  3477               	retlw	119	;'w'
   948  0809  3420               	retlw	32	;' '
   949  080A  3470               	retlw	112	;'p'
   950  080B  3461               	retlw	97	;'a'
   951  080C  3473               	retlw	115	;'s'
   952  080D  3473               	retlw	115	;'s'
   953  080E  3477               	retlw	119	;'w'
   954  080F  346F               	retlw	111	;'o'
   955  0810  3472               	retlw	114	;'r'
   956  0811  3464               	retlw	100	;'d'
   957  0812  3400               	retlw	0
   958  0813                     STR_15:
   959  0813  3420               	retlw	32	;' '
   960  0814  3420               	retlw	32	;' '
   961  0815  3454               	retlw	84	;'T'
   962  0816  3449               	retlw	73	;'I'
   963  0817  344D               	retlw	77	;'M'
   964  0818  3445               	retlw	69	;'E'
   965  0819  3420               	retlw	32	;' '
   966  081A  3420               	retlw	32	;' '
   967  081B  3420               	retlw	32	;' '
   968  081C  3420               	retlw	32	;' '
   969  081D  3420               	retlw	32	;' '
   970  081E  3445               	retlw	69	;'E'
   971  081F  3420               	retlw	32	;' '
   972  0820  3420               	retlw	32	;' '
   973  0821  3453               	retlw	83	;'S'
   974  0822  3450               	retlw	80	;'P'
   975  0823  3400               	retlw	0
   976  0824                     STR_26:
   977  0824  3450               	retlw	80	;'P'
   978  0825  3461               	retlw	97	;'a'
   979  0826  3473               	retlw	115	;'s'
   980  0827  3473               	retlw	115	;'s'
   981  0828  3477               	retlw	119	;'w'
   982  0829  346F               	retlw	111	;'o'
   983  082A  3472               	retlw	114	;'r'
   984  082B  3464               	retlw	100	;'d'
   985  082C  3420               	retlw	32	;' '
   986  082D  3463               	retlw	99	;'c'
   987  082E  3468               	retlw	104	;'h'
   988  082F  3461               	retlw	97	;'a'
   989  0830  346E               	retlw	110	;'n'
   990  0831  3467               	retlw	103	;'g'
   991  0832  3465               	retlw	101	;'e'
   992  0833  3464               	retlw	100	;'d'
   993  0834  3400               	retlw	0
   994  0835                     STR_9:
   995  0835  3423               	retlw	35	;'#'
   996  0836  3420               	retlw	32	;' '
   997  0837  3454               	retlw	84	;'T'
   998  0838  3449               	retlw	73	;'I'
   999  0839  344D               	retlw	77	;'M'
  1000  083A  3445               	retlw	69	;'E'
  1001  083B  3420               	retlw	32	;' '
  1002  083C  3420               	retlw	32	;' '
  1003  083D  3420               	retlw	32	;' '
  1004  083E  3420               	retlw	32	;' '
  1005  083F  3420               	retlw	32	;' '
  1006  0840  3445               	retlw	69	;'E'
  1007  0841  3420               	retlw	32	;' '
  1008  0842  3420               	retlw	32	;' '
  1009  0843  3453               	retlw	83	;'S'
  1010  0844  3450               	retlw	80	;'P'
  1011  0845  3400               	retlw	0
  1012  0846                     STR_17:
  1013  0846  3457               	retlw	87	;'W'
  1014  0847  3461               	retlw	97	;'a'
  1015  0848  3469               	retlw	105	;'i'
  1016  0849  3474               	retlw	116	;'t'
  1017  084A  342E               	retlw	46	;'.'
  1018  084B  342E               	retlw	46	;'.'
  1019  084C  3466               	retlw	102	;'f'
  1020  084D  346F               	retlw	111	;'o'
  1021  084E  3472               	retlw	114	;'r'
  1022  084F  3420               	retlw	32	;' '
  1023  0850  3436               	retlw	54	;'6'
  1024  0851  3430               	retlw	48	;'0'
  1025  0852  3473               	retlw	115	;'s'
  1026  0853  3465               	retlw	101	;'e'
  1027  0854  3463               	retlw	99	;'c'
  1028  0855  3400               	retlw	0
  1029  0856                     STR_16:
  1030  0856  3459               	retlw	89	;'Y'
  1031  0857  346F               	retlw	111	;'o'
  1032  0858  3475               	retlw	117	;'u'
  1033  0859  3420               	retlw	32	;' '
  1034  085A  3461               	retlw	97	;'a'
  1035  085B  3472               	retlw	114	;'r'
  1036  085C  3465               	retlw	101	;'e'
  1037  085D  3420               	retlw	32	;' '
  1038  085E  3442               	retlw	66	;'B'
  1039  085F  346C               	retlw	108	;'l'
  1040  0860  346F               	retlw	111	;'o'
  1041  0861  3463               	retlw	99	;'c'
  1042  0862  346B               	retlw	107	;'k'
  1043  0863  3465               	retlw	101	;'e'
  1044  0864  3464               	retlw	100	;'d'
  1045  0865  3400               	retlw	0
  1046  0866                     STR_28:
  1047  0866  3450               	retlw	80	;'P'
  1048  0867  3461               	retlw	97	;'a'
  1049  0868  3473               	retlw	115	;'s'
  1050  0869  3473               	retlw	115	;'s'
  1051  086A  3477               	retlw	119	;'w'
  1052  086B  346F               	retlw	111	;'o'
  1053  086C  3472               	retlw	114	;'r'
  1054  086D  3464               	retlw	100	;'d'
  1055  086E  3420               	retlw	32	;' '
  1056  086F  3463               	retlw	99	;'c'
  1057  0870  3468               	retlw	104	;'h'
  1058  0871  3461               	retlw	97	;'a'
  1059  0872  346E               	retlw	110	;'n'
  1060  0873  3467               	retlw	103	;'g'
  1061  0874  3465               	retlw	101	;'e'
  1062  0875  3400               	retlw	0
  1063  0876                     STR_19:
  1064  0876  3441               	retlw	65	;'A'
  1065  0877  3474               	retlw	116	;'t'
  1066  0878  3474               	retlw	116	;'t'
  1067  0879  3465               	retlw	101	;'e'
  1068  087A  346D               	retlw	109	;'m'
  1069  087B  3470               	retlw	112	;'p'
  1070  087C  3474               	retlw	116	;'t'
  1071  087D  3473               	retlw	115	;'s'
  1072  087E  3420               	retlw	32	;' '
  1073  087F  3472               	retlw	114	;'r'
  1074  0880  3465               	retlw	101	;'e'
  1075  0881  346D               	retlw	109	;'m'
  1076  0882  3461               	retlw	97	;'a'
  1077  0883  3469               	retlw	105	;'i'
  1078  0884  346E               	retlw	110	;'n'
  1079  0885  3400               	retlw	0
  1080  0886                     STR_8:
  1081  0886  3420               	retlw	32	;' '
  1082  0887  3445               	retlw	69	;'E'
  1083  0888  344E               	retlw	78	;'N'
  1084  0889  3454               	retlw	84	;'T'
  1085  088A  3445               	retlw	69	;'E'
  1086  088B  3452               	retlw	82	;'R'
  1087  088C  3420               	retlw	32	;' '
  1088  088D  3450               	retlw	80	;'P'
  1089  088E  3441               	retlw	65	;'A'
  1090  088F  3453               	retlw	83	;'S'
  1091  0890  3453               	retlw	83	;'S'
  1092  0891  3457               	retlw	87	;'W'
  1093  0892  344F               	retlw	79	;'O'
  1094  0893  3452               	retlw	82	;'R'
  1095  0894  3444               	retlw	68	;'D'
  1096  0895  3400               	retlw	0
  1097  0896                     STR_18:
  1098  0896  3457               	retlw	87	;'W'
  1099  0897  3472               	retlw	114	;'r'
  1100  0898  346F               	retlw	111	;'o'
  1101  0899  346E               	retlw	110	;'n'
  1102  089A  3467               	retlw	103	;'g'
  1103  089B  3420               	retlw	32	;' '
  1104  089C  3450               	retlw	80	;'P'
  1105  089D  3461               	retlw	97	;'a'
  1106  089E  3473               	retlw	115	;'s'
  1107  089F  3473               	retlw	115	;'s'
  1108  08A0  3477               	retlw	119	;'w'
  1109  08A1  346F               	retlw	111	;'o'
  1110  08A2  3472               	retlw	114	;'r'
  1111  08A3  3464               	retlw	100	;'d'
  1112  08A4  3400               	retlw	0
  1113  08A5                     STR_14:
  1114  08A5  3463               	retlw	99	;'c'
  1115  08A6  3468               	retlw	104	;'h'
  1116  08A7  3461               	retlw	97	;'a'
  1117  08A8  346E               	retlw	110	;'n'
  1118  08A9  3467               	retlw	103	;'g'
  1119  08AA  3465               	retlw	101	;'e'
  1120  08AB  3420               	retlw	32	;' '
  1121  08AC  3470               	retlw	112	;'p'
  1122  08AD  3461               	retlw	97	;'a'
  1123  08AE  3473               	retlw	115	;'s'
  1124  08AF  3473               	retlw	115	;'s'
  1125  08B0  3477               	retlw	119	;'w'
  1126  08B1  3472               	retlw	114	;'r'
  1127  08B2  3464               	retlw	100	;'d'
  1128  08B3  3400               	retlw	0
  1129  08B4                     STR_22:
  1130  08B4  344C               	retlw	76	;'L'
  1131  08B5  346F               	retlw	111	;'o'
  1132  08B6  3467               	retlw	103	;'g'
  1133  08B7  3473               	retlw	115	;'s'
  1134  08B8  3420               	retlw	32	;' '
  1135  08B9  3463               	retlw	99	;'c'
  1136  08BA  346C               	retlw	108	;'l'
  1137  08BB  3465               	retlw	101	;'e'
  1138  08BC  3461               	retlw	97	;'a'
  1139  08BD  3472               	retlw	114	;'r'
  1140  08BE  3465               	retlw	101	;'e'
  1141  08BF  3464               	retlw	100	;'d'
  1142  08C0  3400               	retlw	0
  1143  08C1                     STR_25:
  1144  08C1  3472               	retlw	114	;'r'
  1145  08C2  3465               	retlw	101	;'e'
  1146  08C3  342D               	retlw	45	;'-'
  1147  08C4  3465               	retlw	101	;'e'
  1148  08C5  346E               	retlw	110	;'n'
  1149  08C6  3474               	retlw	116	;'t'
  1150  08C7  3465               	retlw	101	;'e'
  1151  08C8  3472               	retlw	114	;'r'
  1152  08C9  3420               	retlw	32	;' '
  1153  08CA  3470               	retlw	112	;'p'
  1154  08CB  3477               	retlw	119	;'w'
  1155  08CC  3464               	retlw	100	;'d'
  1156  08CD  3400               	retlw	0
  1157  08CE                     STR_23:
  1158  08CE  3453               	retlw	83	;'S'
  1159  08CF  3475               	retlw	117	;'u'
  1160  08D0  3463               	retlw	99	;'c'
  1161  08D1  3463               	retlw	99	;'c'
  1162  08D2  3465               	retlw	101	;'e'
  1163  08D3  3473               	retlw	115	;'s'
  1164  08D4  3473               	retlw	115	;'s'
  1165  08D5  3466               	retlw	102	;'f'
  1166  08D6  3475               	retlw	117	;'u'
  1167  08D7  346C               	retlw	108	;'l'
  1168  08D8  346C               	retlw	108	;'l'
  1169  08D9  3479               	retlw	121	;'y'
  1170  08DA  3400               	retlw	0
  1171  08DB                     STR_13:
  1172  08DB  3463               	retlw	99	;'c'
  1173  08DC  346C               	retlw	108	;'l'
  1174  08DD  3465               	retlw	101	;'e'
  1175  08DE  3461               	retlw	97	;'a'
  1176  08DF  3472               	retlw	114	;'r'
  1177  08E0  3420               	retlw	32	;' '
  1178  08E1  346C               	retlw	108	;'l'
  1179  08E2  346F               	retlw	111	;'o'
  1180  08E3  3467               	retlw	103	;'g'
  1181  08E4  3400               	retlw	0
  1182  08E5                     STR_12:
  1183  08E5  3456               	retlw	86	;'V'
  1184  08E6  3469               	retlw	105	;'i'
  1185  08E7  3465               	retlw	101	;'e'
  1186  08E8  3477               	retlw	119	;'w'
  1187  08E9  3420               	retlw	32	;' '
  1188  08EA  346C               	retlw	108	;'l'
  1189  08EB  346F               	retlw	111	;'o'
  1190  08EC  3467               	retlw	103	;'g'
  1191  08ED  3400               	retlw	0
  1192  08EE                     STR_21:
  1193  08EE  344E               	retlw	78	;'N'
  1194  08EF  344F               	retlw	79	;'O'
  1195  08F0  3420               	retlw	32	;' '
  1196  08F1  344C               	retlw	76	;'L'
  1197  08F2  346F               	retlw	111	;'o'
  1198  08F3  3467               	retlw	103	;'g'
  1199  08F4  3473               	retlw	115	;'s'
  1200  08F5  3400               	retlw	0
  1201  08F6                     STR_29:
  1202  08F6  3446               	retlw	70	;'F'
  1203  08F7  3441               	retlw	65	;'A'
  1204  08F8  3449               	retlw	73	;'I'
  1205  08F9  344C               	retlw	76	;'L'
  1206  08FA  3445               	retlw	69	;'E'
  1207  08FB  3444               	retlw	68	;'D'
  1208  08FC  3400               	retlw	0
  1209  08FD                     STR_7:
  1210  08FD  3443               	retlw	67	;'C'
  1211  08FE  3420               	retlw	32	;' '
  1212  08FF  3400               	retlw	0
  1213  0900                     STR_3:
  1214  0900  3447               	retlw	71	;'G'
  1215  0901  3431               	retlw	49	;'1'
  1216  0902  3400               	retlw	0
  1217  0903                     STR_4:
  1218  0903  3447               	retlw	71	;'G'
  1219  0904  3432               	retlw	50	;'2'
  1220  0905  3400               	retlw	0
  1221  0906                     STR_5:
  1222  0906  3447               	retlw	71	;'G'
  1223  0907  3433               	retlw	51	;'3'
  1224  0908  3400               	retlw	0
  1225  0909                     STR_6:
  1226  0909  3447               	retlw	71	;'G'
  1227  090A  3434               	retlw	52	;'4'
  1228  090B  3400               	retlw	0
  1229  090C                     STR_10:
  1230  090C  3443               	retlw	67	;'C'
  1231  090D  344C               	retlw	76	;'L'
  1232  090E  3400               	retlw	0
  1233  090F                     STR_1:
  1234  090F  3447               	retlw	71	;'G'
  1235  0910  344E               	retlw	78	;'N'
  1236  0911  3400               	retlw	0
  1237  0912                     STR_11:
  1238  0912  3443               	retlw	67	;'C'
  1239  0913  3450               	retlw	80	;'P'
  1240  0914  3400               	retlw	0
  1241  0915                     STR_2:
  1242  0915  3447               	retlw	71	;'G'
  1243  0916  3452               	retlw	82	;'R'
  1244  0917  3400               	retlw	0
  1245  0886                     
  1246                           	psect	cinit
  1247  000F                     start_initialization:	
  1248                           ; #config settings
  1249                           
  1250  000F                     __initialization:
  1251                           
  1252                           ; Initialize objects allocated to BANK1
  1253  000F  1383               	bcf	3,7	;select IRP bank0
  1254  0010  30C0               	movlw	low (__pdataBANK1+12)
  1255  0011  00FD               	movwf	btemp+-1
  1256  0012  3009               	movlw	high __pidataBANK1
  1257  0013  00FE               	movwf	btemp
  1258  0014  3035               	movlw	low __pidataBANK1
  1259  0015  00FF               	movwf	btemp+1
  1260  0016  30B4               	movlw	low __pdataBANK1
  1261  0017  0084               	movwf	4
  1262  0018  120A  158A  217E  120A  118A  	fcall	init_ram0
  1263                           
  1264                           ; Initialize objects allocated to BANK0
  1265  001D  306F               	movlw	low (__pdataBANK0+10)
  1266  001E  00FD               	movwf	btemp+-1
  1267  001F  3017               	movlw	high __pidataBANK0
  1268  0020  00FE               	movwf	btemp
  1269  0021  30E0               	movlw	low __pidataBANK0
  1270  0022  00FF               	movwf	btemp+1
  1271  0023  3065               	movlw	low __pdataBANK0
  1272  0024  0084               	movwf	4
  1273  0025  120A  158A  217E  120A  118A  	fcall	init_ram0
  1274                           
  1275                           ; Initialize objects allocated to COMMON
  1276  002A  120A  118A  27FF  120A  118A  	fcall	__pidataCOMMON	;fetch initializer
  1277  002F  00FB               	movwf	__pdataCOMMON& (0+127)
  1278                           
  1279                           ; Clear objects allocated to BANK1
  1280  0030  30A0               	movlw	low __pbssBANK1
  1281  0031  0084               	movwf	4
  1282  0032  30B4               	movlw	low (__pbssBANK1+20)
  1283  0033  160A  118A  27C6  120A  118A  	fcall	clear_ram0
  1284                           
  1285                           ; Clear objects allocated to BANK0
  1286  0038  3047               	movlw	low __pbssBANK0
  1287  0039  0084               	movwf	4
  1288  003A  3065               	movlw	low (__pbssBANK0+30)
  1289  003B  160A  118A  27C6  120A  118A  	fcall	clear_ram0
  1290                           
  1291                           ; Clear objects allocated to COMMON
  1292  0040  01F9               	clrf	__pbssCOMMON& (0+127)
  1293  0041  01FA               	clrf	(__pbssCOMMON+1)& (0+127)
  1294  0042                     end_of_initialization:	
  1295                           ;End of C runtime variable initialization code
  1296                           
  1297  0042                     __end_of__initialization:
  1298  0042  0183               	clrf	3
  1299  0043  120A  118A  2846   	ljmp	_main	;jump to C main() function
  1300                           
  1301                           	psect	bssCOMMON
  1302  0079                     __pbssCOMMON:
  1303  0079                     isr@count:
  1304  0079                     	ds	2
  1305                           
  1306                           	psect	dataCOMMON
  1307  007B                     __pdataCOMMON:
  1308  007B                     read_digital_keypad@once:
  1309  007B                     	ds	1
  1310                           
  1311                           	psect	bssBANK0
  1312  0047                     __pbssBANK0:
  1313  0047                     _clock_reg:
  1314  0047                     	ds	3
  1315  004A                     change_password@once:
  1316  004A                     	ds	2
  1317  004C                     change_password@pos:
  1318  004C                     	ds	2
  1319  004E                     _event_count:
  1320  004E                     	ds	2
  1321  0050                     view_log@rpos:
  1322  0050                     	ds	1
  1323  0051                     login_menu@menu_pos:
  1324  0051                     	ds	1
  1325  0052                     login@i:
  1326  0052                     	ds	1
  1327  0053                     login@attempt_rem:
  1328  0053                     	ds	1
  1329  0054                     _sec:
  1330  0054                     	ds	1
  1331  0055                     _return_time:
  1332  0055                     	ds	1
  1333  0056                     _time:
  1334  0056                     	ds	7
  1335  005D                     login@spassword:
  1336  005D                     	ds	4
  1337  0061                     login@npassword:
  1338  0061                     	ds	4
  1339                           
  1340                           	psect	dataBANK0
  1341  0065                     __pdataBANK0:
  1342  0065                     _menu:
  1343  0065                     	ds	6
  1344  006B                     main@F1018:
  1345  006B                     	ds	3
  1346  006E                     _pos:
  1347  006E                     	ds	1
  1348                           
  1349                           	psect	bssBANK1
  1350  00A0                     __pbssBANK1:
  1351  00A0                     _log:
  1352  00A0                     	ds	11
  1353  00AB                     change_password@pwd:
  1354  00AB                     	ds	9
  1355                           
  1356                           	psect	dataBANK1
  1357  00B4                     __pdataBANK1:
  1358  00B4                     _gear:
  1359  00B4                     	ds	12
  1360                           
  1361                           	psect	inittext
  1362  097A                     init_fetch0:	
  1363                           ;	Called with low address in FSR and high address in W
  1364                           
  1365  097A  087E               	movf	btemp,w
  1366  097B  008A               	movwf	10
  1367  097C  087F               	movf	btemp+1,w
  1368  097D  0082               	movwf	2
  1369  097E                     init_ram0:	
  1370                           ;Called with:
  1371                           ;	high address of idata address in btemp 
  1372                           ;	low address of idata address in btemp+1 
  1373                           ;	low address of data in FSR
  1374                           ;	high address + 1 of data in btemp-1
  1375                           
  1376  097E  120A  158A  217A  120A  158A  	fcall	init_fetch0
  1377  0983  0080               	movwf	0
  1378  0984  0A84               	incf	4,f
  1379  0985  0804               	movf	4,w
  1380  0986  067D               	xorwf	btemp+-1,w
  1381  0987  1903               	btfsc	3,2
  1382  0988  3400               	retlw	0
  1383  0989  0AFF               	incf	btemp+1,f
  1384  098A  1903               	btfsc	3,2
  1385  098B  0AFE               	incf	btemp,f
  1386  098C  297E               	goto	init_ram0
  1387                           
  1388                           	psect	clrtext
  1389  17C6                     clear_ram0:	
  1390                           ;	Called with FSR containing the base address, and
  1391                           ;	W with the last address+1
  1392                           
  1393  17C6  0064               	clrwdt	;clear the watchdog before getting into this loop
  1394  17C7                     clrloop0:
  1395  17C7  0180               	clrf	0	;clear RAM location pointed to by FSR
  1396  17C8  0A84               	incf	4,f	;increment pointer
  1397  17C9  0604               	xorwf	4,w	;XOR with final address
  1398  17CA  1903               	btfsc	3,2	;have we reached the end yet?
  1399  17CB  3400               	retlw	0	;all done for this memory range, return
  1400  17CC  0604               	xorwf	4,w	;XOR again to restore value
  1401  17CD  2FC7               	goto	clrloop0	;do the next byte
  1402                           
  1403                           	psect	cstackCOMMON
  1404  0070                     __pcstackCOMMON:
  1405  0070                     ?_read_ds1307:
  1406  0070                     ?_i2c_start:	
  1407                           ; 1 bytes @ 0x0
  1408                           
  1409  0070                     ?_i2c_rep_start:	
  1410                           ; 1 bytes @ 0x0
  1411                           
  1412  0070                     ?_i2c_read:	
  1413                           ; 1 bytes @ 0x0
  1414                           
  1415  0070                     ?_i2c_stop:	
  1416                           ; 1 bytes @ 0x0
  1417                           
  1418  0070                     ?_init_timer2:	
  1419                           ; 1 bytes @ 0x0
  1420                           
  1421  0070                     ?_clear_screen:	
  1422                           ; 1 bytes @ 0x0
  1423                           
  1424  0070                     ?_clear_log:	
  1425                           ; 1 bytes @ 0x0
  1426                           
  1427  0070                     ?_eeprom_read:	
  1428                           ; 1 bytes @ 0x0
  1429                           
  1430  0070                     ?_init_digital_keypad:	
  1431                           ; 1 bytes @ 0x0
  1432                           
  1433  0070                     ?_read_digital_keypad:	
  1434                           ; 1 bytes @ 0x0
  1435                           
  1436  0070                     ?_init_adc:	
  1437                           ; 1 bytes @ 0x0
  1438                           
  1439  0070                     ?_init_ds1307:	
  1440                           ; 1 bytes @ 0x0
  1441                           
  1442  0070                     ?_i2c_wait_for_idle:	
  1443                           ; 1 bytes @ 0x0
  1444                           
  1445  0070                     ?_init_display_controller:	
  1446                           ; 1 bytes @ 0x0
  1447                           
  1448  0070                     ?_init_clcd:	
  1449                           ; 1 bytes @ 0x0
  1450                           
  1451  0070                     ?_init_config:	
  1452                           ; 1 bytes @ 0x0
  1453                           
  1454  0070                     ?_main:	
  1455                           ; 1 bytes @ 0x0
  1456                           
  1457  0070                     ?_get_time:	
  1458                           ; 1 bytes @ 0x0
  1459                           
  1460  0070                     ?_display_time:	
  1461                           ; 1 bytes @ 0x0
  1462                           
  1463  0070                     ?_log_event:	
  1464                           ; 1 bytes @ 0x0
  1465                           
  1466  0070                     ?_isr:	
  1467                           ; 1 bytes @ 0x0
  1468                           
  1469  0070                     ??_isr:	
  1470                           ; 1 bytes @ 0x0
  1471                           
  1472  0070                     ?_i2c_write:	
  1473                           ; 1 bytes @ 0x0
  1474                           
  1475                           
  1476                           ; 2 bytes @ 0x0
  1477  0070                     	ds	2
  1478  0072                     ??_i2c_start:
  1479  0072                     ??_i2c_write:	
  1480                           ; 1 bytes @ 0x2
  1481                           
  1482  0072                     ??_i2c_rep_start:	
  1483                           ; 1 bytes @ 0x2
  1484                           
  1485  0072                     ??_i2c_read:	
  1486                           ; 1 bytes @ 0x2
  1487                           
  1488  0072                     ??_i2c_stop:	
  1489                           ; 1 bytes @ 0x2
  1490                           
  1491  0072                     ??_init_timer2:	
  1492                           ; 1 bytes @ 0x2
  1493                           
  1494  0072                     ?_eeprom_write:	
  1495                           ; 1 bytes @ 0x2
  1496                           
  1497  0072                     ?_strcpy:	
  1498                           ; 1 bytes @ 0x2
  1499                           
  1500  0072                     ?_strncpy:	
  1501                           ; 1 bytes @ 0x2
  1502                           
  1503  0072                     ??_eeprom_read:	
  1504                           ; 1 bytes @ 0x2
  1505                           
  1506  0072                     ??_init_digital_keypad:	
  1507                           ; 1 bytes @ 0x2
  1508                           
  1509  0072                     ??_read_digital_keypad:	
  1510                           ; 1 bytes @ 0x2
  1511                           
  1512  0072                     ??_init_adc:	
  1513                           ; 1 bytes @ 0x2
  1514                           
  1515  0072                     ??_i2c_wait_for_idle:	
  1516                           ; 1 bytes @ 0x2
  1517                           
  1518  0072                     ?_clcd_write:	
  1519                           ; 1 bytes @ 0x2
  1520                           
  1521  0072                     ?___bmul:	
  1522                           ; 1 bytes @ 0x2
  1523                           
  1524  0072                     ??___lldiv:	
  1525                           ; 1 bytes @ 0x2
  1526                           
  1527  0072                     ?_strncmp:	
  1528                           ; 1 bytes @ 0x2
  1529                           
  1530  0072                     ?_read_adc:	
  1531                           ; 2 bytes @ 0x2
  1532                           
  1533  0072                     ?___awdiv:	
  1534                           ; 2 bytes @ 0x2
  1535                           
  1536  0072                     ?___awmod:	
  1537                           ; 2 bytes @ 0x2
  1538                           
  1539  0072                     i2c_write@data:	
  1540                           ; 2 bytes @ 0x2
  1541                           
  1542  0072                     clcd_write@mode:	
  1543                           ; 1 bytes @ 0x2
  1544                           
  1545  0072                     eeprom_write@value:	
  1546                           ; 1 bytes @ 0x2
  1547                           
  1548  0072                     ___bmul@multiplicand:	
  1549                           ; 1 bytes @ 0x2
  1550                           
  1551  0072                     strncmp@s2:	
  1552                           ; 1 bytes @ 0x2
  1553                           
  1554  0072                     ___awdiv@divisor:	
  1555                           ; 1 bytes @ 0x2
  1556                           
  1557  0072                     ___awmod@divisor:	
  1558                           ; 2 bytes @ 0x2
  1559                           
  1560  0072                     strcpy@from:	
  1561                           ; 2 bytes @ 0x2
  1562                           
  1563  0072                     strncpy@from:	
  1564                           ; 2 bytes @ 0x2
  1565                           
  1566                           
  1567                           ; 2 bytes @ 0x2
  1568  0072                     	ds	1
  1569  0073                     ?_write_ds1307:
  1570  0073                     ??_eeprom_write:	
  1571                           ; 1 bytes @ 0x3
  1572                           
  1573  0073                     ??_clcd_write:	
  1574                           ; 1 bytes @ 0x3
  1575                           
  1576  0073                     ??___bmul:	
  1577                           ; 1 bytes @ 0x3
  1578                           
  1579  0073                     read_digital_keypad@mode:	
  1580                           ; 1 bytes @ 0x3
  1581                           
  1582  0073                     write_ds1307@data:	
  1583                           ; 1 bytes @ 0x3
  1584                           
  1585  0073                     i2c_read@ack:	
  1586                           ; 1 bytes @ 0x3
  1587                           
  1588  0073                     eeprom_read@addr:	
  1589                           ; 1 bytes @ 0x3
  1590                           
  1591  0073                     strncmp@len:	
  1592                           ; 1 bytes @ 0x3
  1593                           
  1594  0073                     ___lldiv@quotient:	
  1595                           ; 2 bytes @ 0x3
  1596                           
  1597                           
  1598                           ; 4 bytes @ 0x3
  1599  0073                     	ds	1
  1600  0074                     ??_write_ds1307:
  1601  0074                     ??_strcpy:	
  1602                           ; 1 bytes @ 0x4
  1603                           
  1604  0074                     ??_read_adc:	
  1605                           ; 1 bytes @ 0x4
  1606                           
  1607  0074                     write_ds1307@addr:	
  1608                           ; 1 bytes @ 0x4
  1609                           
  1610  0074                     i2c_read@data:	
  1611                           ; 1 bytes @ 0x4
  1612                           
  1613  0074                     eeprom_write@addr:	
  1614                           ; 1 bytes @ 0x4
  1615                           
  1616  0074                     ___bmul@product:	
  1617                           ; 1 bytes @ 0x4
  1618                           
  1619  0074                     read_adc@adc_reg_val:	
  1620                           ; 1 bytes @ 0x4
  1621                           
  1622  0074                     ___awdiv@dividend:	
  1623                           ; 2 bytes @ 0x4
  1624                           
  1625  0074                     ___awmod@dividend:	
  1626                           ; 2 bytes @ 0x4
  1627                           
  1628  0074                     strncpy@size:	
  1629                           ; 2 bytes @ 0x4
  1630                           
  1631                           
  1632                           ; 2 bytes @ 0x4
  1633  0074                     	ds	1
  1634  0075                     ??_read_ds1307:
  1635  0075                     ??_strncmp:	
  1636                           ; 1 bytes @ 0x5
  1637                           
  1638  0075                     clcd_write@byte:	
  1639                           ; 1 bytes @ 0x5
  1640                           
  1641  0075                     ___bmul@multiplier:	
  1642                           ; 1 bytes @ 0x5
  1643                           
  1644  0075                     strcpy@cp:	
  1645                           ; 1 bytes @ 0x5
  1646                           
  1647                           
  1648                           ; 1 bytes @ 0x5
  1649  0075                     	ds	1
  1650  0076                     ??_clear_screen:
  1651  0076                     ??_strncpy:	
  1652                           ; 1 bytes @ 0x6
  1653                           
  1654  0076                     ??_init_display_controller:	
  1655                           ; 1 bytes @ 0x6
  1656                           
  1657  0076                     ?_clcd_print:	
  1658                           ; 1 bytes @ 0x6
  1659                           
  1660  0076                     ??_log_event:	
  1661                           ; 1 bytes @ 0x6
  1662                           
  1663  0076                     ??___awdiv:	
  1664                           ; 1 bytes @ 0x6
  1665                           
  1666  0076                     ??___awmod:	
  1667                           ; 1 bytes @ 0x6
  1668                           
  1669  0076                     ??___lwdiv:	
  1670                           ; 1 bytes @ 0x6
  1671                           
  1672  0076                     read_ds1307@addr:	
  1673                           ; 1 bytes @ 0x6
  1674                           
  1675  0076                     strcpy@to:	
  1676                           ; 1 bytes @ 0x6
  1677                           
  1678  0076                     clcd_print@str:	
  1679                           ; 1 bytes @ 0x6
  1680                           
  1681                           
  1682                           ; 2 bytes @ 0x6
  1683  0076                     	ds	1
  1684  0077                     read_ds1307@data:
  1685  0077                     ___lldiv@counter:	
  1686                           ; 1 bytes @ 0x7
  1687                           
  1688  0077                     ___awmod@counter:	
  1689                           ; 1 bytes @ 0x7
  1690                           
  1691  0077                     strncmp@s1:	
  1692                           ; 1 bytes @ 0x7
  1693                           
  1694                           
  1695                           ; 1 bytes @ 0x7
  1696  0077                     	ds	1
  1697  0078                     ??_init_ds1307:
  1698  0078                     ??_init_clcd:	
  1699                           ; 1 bytes @ 0x8
  1700                           
  1701  0078                     clcd_print@addr:	
  1702                           ; 1 bytes @ 0x8
  1703                           
  1704  0078                     ___awmod@sign:	
  1705                           ; 1 bytes @ 0x8
  1706                           
  1707                           
  1708                           ; 1 bytes @ 0x8
  1709  0078                     	ds	1
  1710  0079                     ??_clcd_putch:
  1711  0079                     ??_clcd_print:	
  1712                           ; 1 bytes @ 0x9
  1713                           
  1714  0079                     ??_init_config:	
  1715                           ; 1 bytes @ 0x9
  1716                           
  1717                           
  1718                           	psect	cstackBANK0
  1719  0020                     __pcstackBANK0:	
  1720                           ; 1 bytes @ 0x9
  1721                           
  1722  0020                     ??_clear_log:
  1723  0020                     ??_get_time:	
  1724                           ; 1 bytes @ 0x0
  1725                           
  1726  0020                     ?___lwdiv:	
  1727                           ; 1 bytes @ 0x0
  1728                           
  1729  0020                     ?___lldiv:	
  1730                           ; 2 bytes @ 0x0
  1731                           
  1732  0020                     init_ds1307@dummy:	
  1733                           ; 4 bytes @ 0x0
  1734                           
  1735  0020                     log_event@addr:	
  1736                           ; 1 bytes @ 0x0
  1737                           
  1738  0020                     ___awdiv@counter:	
  1739                           ; 1 bytes @ 0x0
  1740                           
  1741  0020                     strncpy@to:	
  1742                           ; 1 bytes @ 0x0
  1743                           
  1744  0020                     ___lwdiv@divisor:	
  1745                           ; 1 bytes @ 0x0
  1746                           
  1747  0020                     ___lldiv@divisor:	
  1748                           ; 2 bytes @ 0x0
  1749                           
  1750                           
  1751                           ; 4 bytes @ 0x0
  1752  0020                     	ds	1
  1753  0021                     ___awdiv@sign:
  1754  0021                     strncpy@cp:	
  1755                           ; 1 bytes @ 0x1
  1756                           
  1757  0021                     log_event@i:	
  1758                           ; 1 bytes @ 0x1
  1759                           
  1760                           
  1761                           ; 2 bytes @ 0x1
  1762  0021                     	ds	1
  1763  0022                     ___awdiv@quotient:
  1764  0022                     ___lwdiv@dividend:	
  1765                           ; 2 bytes @ 0x2
  1766                           
  1767                           
  1768                           ; 2 bytes @ 0x2
  1769  0022                     	ds	1
  1770  0023                     clear_log@reset_flag:
  1771                           
  1772                           ; 1 bytes @ 0x3
  1773  0023                     	ds	1
  1774  0024                     ?_log_car_event:
  1775  0024                     ?_clcd_putch:	
  1776                           ; 1 bytes @ 0x4
  1777                           
  1778  0024                     clcd_putch@addr:	
  1779                           ; 1 bytes @ 0x4
  1780                           
  1781  0024                     log_car_event@speed:	
  1782                           ; 1 bytes @ 0x4
  1783                           
  1784  0024                     ___lwdiv@counter:	
  1785                           ; 1 bytes @ 0x4
  1786                           
  1787  0024                     ___lldiv@dividend:	
  1788                           ; 1 bytes @ 0x4
  1789                           
  1790                           
  1791                           ; 4 bytes @ 0x4
  1792  0024                     	ds	1
  1793  0025                     ??_log_car_event:
  1794  0025                     clcd_putch@data:	
  1795                           ; 1 bytes @ 0x5
  1796                           
  1797  0025                     ___lwdiv@quotient:	
  1798                           ; 1 bytes @ 0x5
  1799                           
  1800                           
  1801                           ; 2 bytes @ 0x5
  1802  0025                     	ds	1
  1803  0026                     ?_login:
  1804  0026                     ?_login_menu:	
  1805                           ; 1 bytes @ 0x6
  1806                           
  1807  0026                     ?_view_log:	
  1808                           ; 1 bytes @ 0x6
  1809                           
  1810  0026                     ?_change_password:	
  1811                           ; 1 bytes @ 0x6
  1812                           
  1813  0026                     ??_display_time:	
  1814                           ; 1 bytes @ 0x6
  1815                           
  1816  0026                     login@reset_flag:	
  1817                           ; 1 bytes @ 0x6
  1818                           
  1819  0026                     login_menu@reset_flag:	
  1820                           ; 1 bytes @ 0x6
  1821                           
  1822  0026                     view_log@reset_flag:	
  1823                           ; 1 bytes @ 0x6
  1824                           
  1825  0026                     change_password@reset_flag:	
  1826                           ; 1 bytes @ 0x6
  1827                           
  1828                           
  1829                           ; 1 bytes @ 0x6
  1830  0026                     	ds	1
  1831  0027                     ?_display_dash_board:
  1832  0027                     ??_login:	
  1833                           ; 1 bytes @ 0x7
  1834                           
  1835  0027                     ??_login_menu:	
  1836                           ; 1 bytes @ 0x7
  1837                           
  1838  0027                     ??_view_log:	
  1839                           ; 1 bytes @ 0x7
  1840                           
  1841  0027                     ??_change_password:	
  1842                           ; 1 bytes @ 0x7
  1843                           
  1844  0027                     display_dash_board@speed:	
  1845                           ; 1 bytes @ 0x7
  1846                           
  1847                           
  1848                           ; 1 bytes @ 0x7
  1849  0027                     	ds	1
  1850  0028                     ??_display_dash_board:
  1851  0028                     ?_init_i2c:	
  1852                           ; 1 bytes @ 0x8
  1853                           
  1854  0028                     log_car_event@event:	
  1855                           ; 1 bytes @ 0x8
  1856                           
  1857  0028                     init_i2c@baud:	
  1858                           ; 1 bytes @ 0x8
  1859                           
  1860                           
  1861                           ; 4 bytes @ 0x8
  1862  0028                     	ds	2
  1863  002A                     login@key:
  1864  002A                     login_menu@key:	
  1865                           ; 1 bytes @ 0xA
  1866                           
  1867  002A                     change_password@key:	
  1868                           ; 1 bytes @ 0xA
  1869                           
  1870  002A                     view_log@rlog:	
  1871                           ; 1 bytes @ 0xA
  1872                           
  1873                           
  1874                           ; 11 bytes @ 0xA
  1875  002A                     	ds	1
  1876  002B                     display_dash_board@event:
  1877  002B                     login@j:	
  1878                           ; 1 bytes @ 0xB
  1879                           
  1880  002B                     change_password@i:	
  1881                           ; 2 bytes @ 0xB
  1882                           
  1883                           
  1884                           ; 2 bytes @ 0xB
  1885  002B                     	ds	1
  1886  002C                     ??_init_i2c:
  1887                           
  1888                           ; 1 bytes @ 0xC
  1889  002C                     	ds	9
  1890  0035                     view_log@addr:
  1891                           
  1892                           ; 1 bytes @ 0x15
  1893  0035                     	ds	1
  1894  0036                     view_log@key:
  1895                           
  1896                           ; 1 bytes @ 0x16
  1897  0036                     	ds	1
  1898  0037                     view_log@i:
  1899                           
  1900                           ; 2 bytes @ 0x17
  1901  0037                     	ds	2
  1902  0039                     ??_main:
  1903                           
  1904                           ; 1 bytes @ 0x19
  1905  0039                     	ds	3
  1906  003C                     main@j:
  1907                           
  1908                           ; 2 bytes @ 0x1C
  1909  003C                     	ds	2
  1910  003E                     main@menu_pos:
  1911                           
  1912                           ; 1 bytes @ 0x1E
  1913  003E                     	ds	1
  1914  003F                     main@event:
  1915                           
  1916                           ; 3 bytes @ 0x1F
  1917  003F                     	ds	3
  1918  0042                     main@gr:
  1919                           
  1920                           ; 1 bytes @ 0x22
  1921  0042                     	ds	1
  1922  0043                     main@control_flag:
  1923                           
  1924                           ; 1 bytes @ 0x23
  1925  0043                     	ds	1
  1926  0044                     main@reset_flag:
  1927                           
  1928                           ; 1 bytes @ 0x24
  1929  0044                     	ds	1
  1930  0045                     main@speed:
  1931                           
  1932                           ; 1 bytes @ 0x25
  1933  0045                     	ds	1
  1934  0046                     main@key:
  1935                           
  1936                           ; 1 bytes @ 0x26
  1937  0046                     	ds	1
  1938                           
  1939                           	psect	maintext
  1940  0046                     __pmaintext:	
  1941 ;;
  1942 ;;Main: autosize = 0, tempsize = 3, incstack = 0, save=0
  1943 ;;
  1944 ;; *************** function _main *****************
  1945 ;; Defined at:
  1946 ;;		line 28 in file "C:/Users/Shreesh Kulkarni/OneDrive/Desktop/Shreesh/Car_Black_Box.X/main.c"
  1947 ;; Parameters:    Size  Location     Type
  1948 ;;		None
  1949 ;; Auto vars:     Size  Location     Type
  1950 ;;  j               2   28[BANK0 ] int 
  1951 ;;  event           3   31[BANK0 ] unsigned char [3]
  1952 ;;  key             1   38[BANK0 ] unsigned char 
  1953 ;;  speed           1   37[BANK0 ] unsigned char 
  1954 ;;  reset_flag      1   36[BANK0 ] unsigned char 
  1955 ;;  control_flag    1   35[BANK0 ] unsigned char 
  1956 ;;  gr              1   34[BANK0 ] unsigned char 
  1957 ;;  menu_pos        1   30[BANK0 ] unsigned char 
  1958 ;; Return value:  Size  Location     Type
  1959 ;;                  1    wreg      void 
  1960 ;; Registers used:
  1961 ;;		wreg, fsr0l, fsr0h, status,2, status,0, btemp+1, pclath, cstack
  1962 ;; Tracked objects:
  1963 ;;		On entry : B00/0
  1964 ;;		On exit  : 0/0
  1965 ;;		Unchanged: 0/0
  1966 ;; Data sizes:     COMMON   BANK0   BANK1   BANK3   BANK2
  1967 ;;      Params:         0       0       0       0       0
  1968 ;;      Locals:         0      11       0       0       0
  1969 ;;      Temps:          0       3       0       0       0
  1970 ;;      Totals:         0      14       0       0       0
  1971 ;;Total ram usage:       14 bytes
  1972 ;; Hardware stack levels required when called: 8
  1973 ;; This function calls:
  1974 ;;		___lwdiv
  1975 ;;		_change_password
  1976 ;;		_clcd_print
  1977 ;;		_clcd_write
  1978 ;;		_clear_log
  1979 ;;		_clear_screen
  1980 ;;		_display_dash_board
  1981 ;;		_eeprom_write
  1982 ;;		_init_config
  1983 ;;		_log_car_event
  1984 ;;		_login
  1985 ;;		_login_menu
  1986 ;;		_read_adc
  1987 ;;		_read_digital_keypad
  1988 ;;		_strcpy
  1989 ;;		_view_log
  1990 ;; This function is called by:
  1991 ;;		Startup code after reset
  1992 ;; This function uses a non-reentrant model
  1993 ;;
  1994                           
  1995  0046                     _main:	
  1996                           ;psect for function _main
  1997                           
  1998  0046                     l3648:	
  1999                           ;incstack = 0
  2000                           ; Regs used in _main: [wreg-fsr0h+status,2+status,0+btemp+1+pclath+cstack]
  2001                           
  2002                           
  2003                           ;C:/Users/Shreesh Kulkarni/OneDrive/Desktop/Shreesh/Car_Black_Box.X/main.c: 29:         
      +                          if (speed>99){
  2004  0046  1283               	bcf	3,5	;RP0=0, select bank0
  2005  0047  1303               	bcf	3,6	;RP1=0, select bank0
  2006  0048  086B               	movf	main@F1018,w
  2007  0049  00BF               	movwf	main@event
  2008  004A  086C               	movf	main@F1018+1,w
  2009  004B  00C0               	movwf	main@event+1
  2010  004C  086D               	movf	main@F1018+2,w
  2011  004D  00C1               	movwf	main@event+2
  2012  004E                     l3650:
  2013  004E                     l3652:
  2014                           
  2015                           ;C:/Users/Shreesh Kulkarni/OneDrive/Desktop/Shreesh/Car_Black_Box.X/main.c: 31:         
      +                          }
  2016  004E  01C3               	clrf	main@control_flag
  2017  004F  0AC3               	incf	main@control_flag,f
  2018  0050                     l3654:
  2019                           
  2020                           ;C:/Users/Shreesh Kulkarni/OneDrive/Desktop/Shreesh/Car_Black_Box.X/main.c: 32:         
      +                          key=read_digital_keypad(1);;C:/Users/Shreesh Kulkarni/OneDrive/Desktop/Shreesh/Car_Black
      +                          _Box.X/main.c: 33:         for(int j=10000;j--;);
  2021  0050  01C2               	clrf	main@gr
  2022  0051                     l3656:
  2023                           
  2024                           ;C:/Users/Shreesh Kulkarni/OneDrive/Desktop/Shreesh/Car_Black_Box.X/main.c: 34:         
      +                          if (key==0x3E){
  2025  0051  120A  158A  227B  120A  118A  	fcall	_init_config
  2026  0056                     l3658:
  2027                           
  2028                           ;C:/Users/Shreesh Kulkarni/OneDrive/Desktop/Shreesh/Car_Black_Box.X/main.c: 35: 
  2029  0056  1283               	bcf	3,5	;RP0=0, select bank0
  2030  0057  1303               	bcf	3,6	;RP1=0, select bank0
  2031  0058  01A4               	clrf	log_car_event@speed
  2032  0059  303F               	movlw	(low main@event)& (0+255)
  2033  005A  120A  158A  26C9  120A  118A  	fcall	_log_car_event
  2034  005F                     l3660:
  2035                           
  2036                           ;C:/Users/Shreesh Kulkarni/OneDrive/Desktop/Shreesh/Car_Black_Box.X/main.c: 37:         
      +                              log_car_event(event,speed);
  2037  005F  3032               	movlw	50
  2038  0060  1283               	bcf	3,5	;RP0=0, select bank0
  2039  0061  1303               	bcf	3,6	;RP1=0, select bank0
  2040  0062  00B9               	movwf	??_main
  2041  0063  0839               	movf	??_main,w
  2042  0064  00F2               	movwf	eeprom_write@value
  2043  0065  3000               	movlw	0
  2044  0066  120A  158A  22A6  120A  118A  	fcall	_eeprom_write
  2045  006B                     l3662:
  2046                           
  2047                           ;C:/Users/Shreesh Kulkarni/OneDrive/Desktop/Shreesh/Car_Black_Box.X/main.c: 38:         
      +                          }
  2048  006B  3034               	movlw	52
  2049  006C  1283               	bcf	3,5	;RP0=0, select bank0
  2050  006D  1303               	bcf	3,6	;RP1=0, select bank0
  2051  006E  00B9               	movwf	??_main
  2052  006F  0839               	movf	??_main,w
  2053  0070  00F2               	movwf	eeprom_write@value
  2054  0071  3001               	movlw	1
  2055  0072  120A  158A  22A6  120A  118A  	fcall	_eeprom_write
  2056  0077                     l3664:
  2057                           
  2058                           ;C:/Users/Shreesh Kulkarni/OneDrive/Desktop/Shreesh/Car_Black_Box.X/main.c: 39:         
      +                          else if (key==0x3D && gr<6){
  2059  0077  3032               	movlw	50
  2060  0078  1283               	bcf	3,5	;RP0=0, select bank0
  2061  0079  1303               	bcf	3,6	;RP1=0, select bank0
  2062  007A  00B9               	movwf	??_main
  2063  007B  0839               	movf	??_main,w
  2064  007C  00F2               	movwf	eeprom_write@value
  2065  007D  3002               	movlw	2
  2066  007E  120A  158A  22A6  120A  118A  	fcall	_eeprom_write
  2067  0083                     l3666:
  2068                           
  2069                           ;C:/Users/Shreesh Kulkarni/OneDrive/Desktop/Shreesh/Car_Black_Box.X/main.c: 40: 
  2070  0083  3034               	movlw	52
  2071  0084  1283               	bcf	3,5	;RP0=0, select bank0
  2072  0085  1303               	bcf	3,6	;RP1=0, select bank0
  2073  0086  00B9               	movwf	??_main
  2074  0087  0839               	movf	??_main,w
  2075  0088  00F2               	movwf	eeprom_write@value
  2076  0089  3003               	movlw	3
  2077  008A  120A  158A  22A6  120A  118A  	fcall	_eeprom_write
  2078  008F                     l3668:
  2079                           
  2080                           ;C:/Users/Shreesh Kulkarni/OneDrive/Desktop/Shreesh/Car_Black_Box.X/main.c: 43:         
      +                              gr++;
  2081  008F  300A               	movlw	10
  2082  0090  1283               	bcf	3,5	;RP0=0, select bank0
  2083  0091  1303               	bcf	3,6	;RP1=0, select bank0
  2084  0092  00A0               	movwf	___lwdiv@divisor
  2085  0093  3000               	movlw	0
  2086  0094  00A1               	movwf	___lwdiv@divisor+1
  2087  0095  120A  158A  2168  120A  118A  	fcall	_read_adc
  2088  009A  0873               	movf	?_read_adc+1,w
  2089  009B  1283               	bcf	3,5	;RP0=0, select bank0
  2090  009C  1303               	bcf	3,6	;RP1=0, select bank0
  2091  009D  00A3               	movwf	___lwdiv@dividend+1
  2092  009E  0872               	movf	?_read_adc,w
  2093  009F  00A2               	movwf	___lwdiv@dividend
  2094  00A0  120A  158A  2411  120A  118A  	fcall	___lwdiv
  2095  00A5  1283               	bcf	3,5	;RP0=0, select bank0
  2096  00A6  1303               	bcf	3,6	;RP1=0, select bank0
  2097  00A7  0820               	movf	?___lwdiv,w
  2098  00A8  00B9               	movwf	??_main
  2099  00A9  0839               	movf	??_main,w
  2100  00AA  00C5               	movwf	main@speed
  2101  00AB                     l3670:
  2102                           
  2103                           ;C:/Users/Shreesh Kulkarni/OneDrive/Desktop/Shreesh/Car_Black_Box.X/main.c: 44: 
  2104  00AB  3064               	movlw	100
  2105  00AC  0245               	subwf	main@speed,w
  2106  00AD  1C03               	skipc
  2107  00AE  28B0               	goto	u2921
  2108  00AF  28B1               	goto	u2920
  2109  00B0                     u2921:
  2110  00B0  28B5               	goto	l3674
  2111  00B1                     u2920:
  2112  00B1                     l3672:
  2113                           
  2114                           ;C:/Users/Shreesh Kulkarni/OneDrive/Desktop/Shreesh/Car_Black_Box.X/main.c: 45:         
      +                          }
  2115  00B1  3063               	movlw	99
  2116  00B2  00B9               	movwf	??_main
  2117  00B3  0839               	movf	??_main,w
  2118  00B4  00C5               	movwf	main@speed
  2119  00B5                     l3674:
  2120                           
  2121                           ;C:/Users/Shreesh Kulkarni/OneDrive/Desktop/Shreesh/Car_Black_Box.X/main.c: 47: 
  2122  00B5  3001               	movlw	1
  2123  00B6  120A  158A  2251  120A  118A  	fcall	_read_digital_keypad
  2124  00BB  1283               	bcf	3,5	;RP0=0, select bank0
  2125  00BC  1303               	bcf	3,6	;RP1=0, select bank0
  2126  00BD  00B9               	movwf	??_main
  2127  00BE  0839               	movf	??_main,w
  2128  00BF  00C6               	movwf	main@key
  2129  00C0                     l3676:
  2130                           
  2131                           ;C:/Users/Shreesh Kulkarni/OneDrive/Desktop/Shreesh/Car_Black_Box.X/main.c: 48:         
      +                              gr--;
  2132  00C0  3010               	movlw	16
  2133  00C1  00BC               	movwf	main@j
  2134  00C2  3027               	movlw	39
  2135  00C3  00BD               	movwf	main@j+1
  2136  00C4                     l3678:
  2137  00C4  30FF               	movlw	255
  2138  00C5  07BC               	addwf	main@j,f
  2139  00C6  1803               	skipnc
  2140  00C7  0ABD               	incf	main@j+1,f
  2141  00C8  30FF               	movlw	255
  2142  00C9  07BD               	addwf	main@j+1,f
  2143  00CA  0A3C               	incf	main@j,w
  2144  00CB  1D03               	skipz
  2145  00CC  28D1               	goto	u2931
  2146  00CD  0A3D               	incf	main@j+1,w
  2147  00CE  1D03               	btfss	3,2
  2148  00CF  28D1               	goto	u2931
  2149  00D0  28D2               	goto	u2930
  2150  00D1                     u2931:
  2151  00D1  28C4               	goto	l3678
  2152  00D2                     u2930:
  2153  00D2                     l3680:
  2154                           
  2155                           ;C:/Users/Shreesh Kulkarni/OneDrive/Desktop/Shreesh/Car_Black_Box.X/main.c: 49:         
      +                              strcpy(event,gear[gr]);
  2156  00D2  303E               	movlw	62
  2157  00D3  0646               	xorwf	main@key,w
  2158  00D4  1D03               	btfss	3,2
  2159  00D5  28D7               	goto	u2941
  2160  00D6  28D8               	goto	u2940
  2161  00D7                     u2941:
  2162  00D7  28EF               	goto	l3684
  2163  00D8                     u2940:
  2164  00D8                     l3682:
  2165                           
  2166                           ;C:/Users/Shreesh Kulkarni/OneDrive/Desktop/Shreesh/Car_Black_Box.X/main.c: 51:         
      +                          }
  2167  00D8  30FD               	movlw	low (STR_7| (0+32768))
  2168  00D9  00F2               	movwf	strcpy@from
  2169  00DA  3088               	movlw	high (STR_7| (0+32768))
  2170  00DB  00F3               	movwf	strcpy@from+1
  2171  00DC  303F               	movlw	(low (main@event| 0))& (0+255)
  2172  00DD  120A  158A  222A  120A  118A  	fcall	_strcpy
  2173                           
  2174                           ;C:/Users/Shreesh Kulkarni/OneDrive/Desktop/Shreesh/Car_Black_Box.X/main.c: 52: 
  2175  00E2  1283               	bcf	3,5	;RP0=0, select bank0
  2176  00E3  1303               	bcf	3,6	;RP1=0, select bank0
  2177  00E4  0845               	movf	main@speed,w
  2178  00E5  00B9               	movwf	??_main
  2179  00E6  0839               	movf	??_main,w
  2180  00E7  00A4               	movwf	log_car_event@speed
  2181  00E8  303F               	movlw	(low main@event)& (0+255)
  2182  00E9  120A  158A  26C9  120A  118A  	fcall	_log_car_event
  2183                           
  2184                           ;C:/Users/Shreesh Kulkarni/OneDrive/Desktop/Shreesh/Car_Black_Box.X/main.c: 53:         
      +                          else if(control_flag==1 && ((key==0x37)||(key==0x2F))){
  2185  00EE  2ABE               	goto	l3808
  2186  00EF                     l3684:
  2187  00EF  303D               	movlw	61
  2188  00F0  0646               	xorwf	main@key,w
  2189  00F1  1D03               	btfss	3,2
  2190  00F2  28F4               	goto	u2951
  2191  00F3  28F5               	goto	u2950
  2192  00F4                     u2951:
  2193  00F4  2920               	goto	l3692
  2194  00F5                     u2950:
  2195  00F5                     l3686:
  2196  00F5  3006               	movlw	6
  2197  00F6  0242               	subwf	main@gr,w
  2198  00F7  1803               	skipnc
  2199  00F8  28FA               	goto	u2961
  2200  00F9  28FB               	goto	u2960
  2201  00FA                     u2961:
  2202  00FA  2920               	goto	l3692
  2203  00FB                     u2960:
  2204  00FB                     l3688:
  2205                           
  2206                           ;C:/Users/Shreesh Kulkarni/OneDrive/Desktop/Shreesh/Car_Black_Box.X/main.c: 56:         
      +                              clcd_print(" ENTER PASSWORD",(0x80 + 0));
  2207  00FB  0842               	movf	main@gr,w
  2208  00FC  00B9               	movwf	??_main
  2209  00FD  0739               	addwf	??_main,w
  2210  00FE  3EB4               	addlw	(low (_gear| 0))& (0+255)
  2211  00FF  0084               	movwf	4
  2212  0100  1383               	bcf	3,7	;select IRP bank1
  2213  0101  0800               	movf	0,w
  2214  0102  00F2               	movwf	strcpy@from
  2215  0103  0A84               	incf	4,f
  2216  0104  0800               	movf	0,w
  2217  0105  0384               	decf	4,f
  2218  0106  00F3               	movwf	strcpy@from+1
  2219  0107  303F               	movlw	(low (main@event| 0))& (0+255)
  2220  0108  120A  158A  222A  120A  118A  	fcall	_strcpy
  2221                           
  2222                           ;C:/Users/Shreesh Kulkarni/OneDrive/Desktop/Shreesh/Car_Black_Box.X/main.c: 57:         
      +                              clcd_write((0xC0 + 6),0);
  2223  010D  1283               	bcf	3,5	;RP0=0, select bank0
  2224  010E  1303               	bcf	3,6	;RP1=0, select bank0
  2225  010F  0845               	movf	main@speed,w
  2226  0110  00B9               	movwf	??_main
  2227  0111  0839               	movf	??_main,w
  2228  0112  00A4               	movwf	log_car_event@speed
  2229  0113  303F               	movlw	(low main@event)& (0+255)
  2230  0114  120A  158A  26C9  120A  118A  	fcall	_log_car_event
  2231  0119                     l3690:
  2232                           
  2233                           ;C:/Users/Shreesh Kulkarni/OneDrive/Desktop/Shreesh/Car_Black_Box.X/main.c: 58:         
      +                              clcd_write(0x0F, 0);
  2234  0119  3001               	movlw	1
  2235  011A  1283               	bcf	3,5	;RP0=0, select bank0
  2236  011B  1303               	bcf	3,6	;RP1=0, select bank0
  2237  011C  00B9               	movwf	??_main
  2238  011D  0839               	movf	??_main,w
  2239  011E  07C2               	addwf	main@gr,f
  2240                           
  2241                           ;C:/Users/Shreesh Kulkarni/OneDrive/Desktop/Shreesh/Car_Black_Box.X/main.c: 60:         
      +                              control_flag=0x02;
  2242  011F  2ABE               	goto	l3808
  2243  0120                     l3692:
  2244  0120  303B               	movlw	59
  2245  0121  0646               	xorwf	main@key,w
  2246  0122  1D03               	btfss	3,2
  2247  0123  2925               	goto	u2971
  2248  0124  2926               	goto	u2970
  2249  0125                     u2971:
  2250  0125  294C               	goto	l3702
  2251  0126                     u2970:
  2252  0126                     l3694:
  2253  0126  0842               	movf	main@gr,w
  2254  0127  1903               	btfsc	3,2
  2255  0128  292A               	goto	u2981
  2256  0129  292B               	goto	u2980
  2257  012A                     u2981:
  2258  012A  294C               	goto	l3702
  2259  012B                     u2980:
  2260  012B                     l3696:
  2261                           
  2262                           ;C:/Users/Shreesh Kulkarni/OneDrive/Desktop/Shreesh/Car_Black_Box.X/main.c: 63: 
  2263  012B  3001               	movlw	1
  2264  012C  02C2               	subwf	main@gr,f
  2265  012D                     l3698:
  2266                           
  2267                           ;C:/Users/Shreesh Kulkarni/OneDrive/Desktop/Shreesh/Car_Black_Box.X/main.c: 64: 
  2268  012D  0842               	movf	main@gr,w
  2269  012E  00B9               	movwf	??_main
  2270  012F  0739               	addwf	??_main,w
  2271  0130  3EB4               	addlw	(low (_gear| 0))& (0+255)
  2272  0131  0084               	movwf	4
  2273  0132  1383               	bcf	3,7	;select IRP bank1
  2274  0133  0800               	movf	0,w
  2275  0134  00F2               	movwf	strcpy@from
  2276  0135  0A84               	incf	4,f
  2277  0136  0800               	movf	0,w
  2278  0137  0384               	decf	4,f
  2279  0138  00F3               	movwf	strcpy@from+1
  2280  0139  303F               	movlw	(low (main@event| 0))& (0+255)
  2281  013A  120A  158A  222A  120A  118A  	fcall	_strcpy
  2282  013F                     l3700:
  2283                           
  2284                           ;C:/Users/Shreesh Kulkarni/OneDrive/Desktop/Shreesh/Car_Black_Box.X/main.c: 65:         
      +                          }
  2285  013F  1283               	bcf	3,5	;RP0=0, select bank0
  2286  0140  1303               	bcf	3,6	;RP1=0, select bank0
  2287  0141  0845               	movf	main@speed,w
  2288  0142  00B9               	movwf	??_main
  2289  0143  0839               	movf	??_main,w
  2290  0144  00A4               	movwf	log_car_event@speed
  2291  0145  303F               	movlw	(low main@event)& (0+255)
  2292  0146  120A  158A  26C9  120A  118A  	fcall	_log_car_event
  2293                           
  2294                           ;C:/Users/Shreesh Kulkarni/OneDrive/Desktop/Shreesh/Car_Black_Box.X/main.c: 66:         
      +                          else if(control_flag==0x06 && (key==0x1F)){
  2295  014B  2ABE               	goto	l3808
  2296  014C                     l3702:
  2297  014C  0343               	decf	main@control_flag,w
  2298  014D  1D03               	btfss	3,2
  2299  014E  2950               	goto	u2991
  2300  014F  2951               	goto	u2990
  2301  0150                     u2991:
  2302  0150  2992               	goto	l3724
  2303  0151                     u2990:
  2304  0151                     l3704:
  2305  0151  3037               	movlw	55
  2306  0152  0646               	xorwf	main@key,w
  2307  0153  1903               	btfsc	3,2
  2308  0154  2956               	goto	u3001
  2309  0155  2957               	goto	u3000
  2310  0156                     u3001:
  2311  0156  295D               	goto	l3708
  2312  0157                     u3000:
  2313  0157                     l3706:
  2314  0157  302F               	movlw	47
  2315  0158  0646               	xorwf	main@key,w
  2316  0159  1D03               	btfss	3,2
  2317  015A  295C               	goto	u3011
  2318  015B  295D               	goto	u3010
  2319  015C                     u3011:
  2320  015C  2992               	goto	l3724
  2321  015D                     u3010:
  2322  015D                     l3708:
  2323                           
  2324                           ;C:/Users/Shreesh Kulkarni/OneDrive/Desktop/Shreesh/Car_Black_Box.X/main.c: 70:         
      +                                      clear_screen();
  2325  015D  120A  158A  2141  120A  118A  	fcall	_clear_screen
  2326  0162                     l3710:
  2327                           
  2328                           ;C:/Users/Shreesh Kulkarni/OneDrive/Desktop/Shreesh/Car_Black_Box.X/main.c: 71:         
      +                                      clcd_print("# TIME     E  SP",(0x80 + 0));
  2329  0162  3086               	movlw	low (STR_8| (0+32768))
  2330  0163  00F6               	movwf	clcd_print@str
  2331  0164  3088               	movlw	high (STR_8| (0+32768))
  2332  0165  00F7               	movwf	clcd_print@str+1
  2333  0166  3080               	movlw	128
  2334  0167  1283               	bcf	3,5	;RP0=0, select bank0
  2335  0168  1303               	bcf	3,6	;RP1=0, select bank0
  2336  0169  00B9               	movwf	??_main
  2337  016A  0839               	movf	??_main,w
  2338  016B  00F8               	movwf	clcd_print@addr
  2339  016C  120A  158A  2300  120A  118A  	fcall	_clcd_print
  2340  0171                     l3712:
  2341                           
  2342                           ;C:/Users/Shreesh Kulkarni/OneDrive/Desktop/Shreesh/Car_Black_Box.X/main.c: 72:         
      +                                      control_flag=0x08;
  2343  0171  01F2               	clrf	clcd_write@mode
  2344  0172  30C6               	movlw	198
  2345  0173  120A  118A  27DF  120A  118A  	fcall	_clcd_write
  2346  0178                     l3714:
  2347                           
  2348                           ;C:/Users/Shreesh Kulkarni/OneDrive/Desktop/Shreesh/Car_Black_Box.X/main.c: 73:         
      +                                      reset_flag=0x15;
  2349  0178  01F2               	clrf	clcd_write@mode
  2350  0179  300F               	movlw	15
  2351  017A  120A  118A  27DF  120A  118A  	fcall	_clcd_write
  2352  017F                     l3716:
  2353                           
  2354                           ;C:/Users/Shreesh Kulkarni/OneDrive/Desktop/Shreesh/Car_Black_Box.X/main.c: 74:         
      +                                      break;
  2355  017F  30A5               	movlw	165
  2356  0180  1283               	bcf	3,5	;RP0=0, select bank0
  2357  0181  1303               	bcf	3,6	;RP1=0, select bank0
  2358  0182  00B9               	movwf	??_main
  2359  0183                     u3057:
  2360  0183  0BB9               	decfsz	??_main,f
  2361  0184  2983               	goto	u3057
  2362  0185  2986               	nop2
  2363  0186                     l3718:
  2364                           
  2365                           ;C:/Users/Shreesh Kulkarni/OneDrive/Desktop/Shreesh/Car_Black_Box.X/main.c: 75:         
      +                                  case 1:
  2366  0186  3002               	movlw	2
  2367  0187  1283               	bcf	3,5	;RP0=0, select bank0
  2368  0188  1303               	bcf	3,6	;RP1=0, select bank0
  2369  0189  00B9               	movwf	??_main
  2370  018A  0839               	movf	??_main,w
  2371  018B  00C3               	movwf	main@control_flag
  2372  018C                     l3720:
  2373                           
  2374                           ;C:/Users/Shreesh Kulkarni/OneDrive/Desktop/Shreesh/Car_Black_Box.X/main.c: 76:         
      +                                      log_car_event("CL",speed);
  2375  018C  3010               	movlw	16
  2376  018D  00B9               	movwf	??_main
  2377  018E  0839               	movf	??_main,w
  2378  018F  00C4               	movwf	main@reset_flag
  2379  0190                     l3722:
  2380                           
  2381                           ;C:/Users/Shreesh Kulkarni/OneDrive/Desktop/Shreesh/Car_Black_Box.X/main.c: 77:         
      +                                      clear_screen();
  2382  0190  1512               	bsf	18,2	;volatile
  2383                           
  2384                           ;C:/Users/Shreesh Kulkarni/OneDrive/Desktop/Shreesh/Car_Black_Box.X/main.c: 80: 
  2385  0191  2ABE               	goto	l3808
  2386  0192                     l3724:
  2387  0192  3006               	movlw	6
  2388  0193  0643               	xorwf	main@control_flag,w
  2389  0194  1D03               	btfss	3,2
  2390  0195  2997               	goto	u3021
  2391  0196  2998               	goto	u3020
  2392  0197                     u3021:
  2393  0197  2ABE               	goto	l3808
  2394  0198                     u3020:
  2395  0198                     l3726:
  2396  0198  301F               	movlw	31
  2397  0199  0646               	xorwf	main@key,w
  2398  019A  1D03               	btfss	3,2
  2399  019B  299D               	goto	u3031
  2400  019C  299E               	goto	u3030
  2401  019D                     u3031:
  2402  019D  2ABE               	goto	l3808
  2403  019E                     u3030:
  2404  019E  29F2               	goto	l3756
  2405  019F                     l3730:
  2406                           
  2407                           ;C:/Users/Shreesh Kulkarni/OneDrive/Desktop/Shreesh/Car_Black_Box.X/main.c: 85:         
      +                                      control_flag=0x0C;
  2408  019F  120A  158A  2141  120A  118A  	fcall	_clear_screen
  2409  01A4                     l3732:
  2410                           
  2411                           ;C:/Users/Shreesh Kulkarni/OneDrive/Desktop/Shreesh/Car_Black_Box.X/main.c: 86:         
      +                                      reset_flag= 0x19;
  2412  01A4  3035               	movlw	low (STR_9| (0+32768))
  2413  01A5  00F6               	movwf	clcd_print@str
  2414  01A6  3088               	movlw	high (STR_9| (0+32768))
  2415  01A7  00F7               	movwf	clcd_print@str+1
  2416  01A8  3080               	movlw	128
  2417  01A9  1283               	bcf	3,5	;RP0=0, select bank0
  2418  01AA  1303               	bcf	3,6	;RP1=0, select bank0
  2419  01AB  00B9               	movwf	??_main
  2420  01AC  0839               	movf	??_main,w
  2421  01AD  00F8               	movwf	clcd_print@addr
  2422  01AE  120A  158A  2300  120A  118A  	fcall	_clcd_print
  2423  01B3                     l3734:
  2424                           
  2425                           ;C:/Users/Shreesh Kulkarni/OneDrive/Desktop/Shreesh/Car_Black_Box.X/main.c: 87: 
  2426  01B3  3008               	movlw	8
  2427  01B4  1283               	bcf	3,5	;RP0=0, select bank0
  2428  01B5  1303               	bcf	3,6	;RP1=0, select bank0
  2429  01B6  00B9               	movwf	??_main
  2430  01B7  0839               	movf	??_main,w
  2431  01B8  00C3               	movwf	main@control_flag
  2432  01B9                     l3736:
  2433                           
  2434                           ;C:/Users/Shreesh Kulkarni/OneDrive/Desktop/Shreesh/Car_Black_Box.X/main.c: 88:         
      +                                      break;
  2435  01B9  3015               	movlw	21
  2436  01BA  00B9               	movwf	??_main
  2437  01BB  0839               	movf	??_main,w
  2438  01BC  00C4               	movwf	main@reset_flag
  2439                           
  2440                           ;C:/Users/Shreesh Kulkarni/OneDrive/Desktop/Shreesh/Car_Black_Box.X/main.c: 89: 
  2441  01BD  2ABE               	goto	l3808
  2442  01BE                     l3738:
  2443                           
  2444                           ;C:/Users/Shreesh Kulkarni/OneDrive/Desktop/Shreesh/Car_Black_Box.X/main.c: 91:         
      +                          }
  2445  01BE  0845               	movf	main@speed,w
  2446  01BF  00B9               	movwf	??_main
  2447  01C0  0839               	movf	??_main,w
  2448  01C1  00A4               	movwf	log_car_event@speed
  2449  01C2  300C               	movlw	(low (STR_10| (0+32768)))& (0+255)
  2450  01C3  120A  158A  26C9  120A  118A  	fcall	_log_car_event
  2451  01C8                     l3740:
  2452                           
  2453                           ;C:/Users/Shreesh Kulkarni/OneDrive/Desktop/Shreesh/Car_Black_Box.X/main.c: 92: 
  2454  01C8  120A  158A  2141  120A  118A  	fcall	_clear_screen
  2455  01CD                     l3742:
  2456                           
  2457                           ;C:/Users/Shreesh Kulkarni/OneDrive/Desktop/Shreesh/Car_Black_Box.X/main.c: 93: 
  2458  01CD  300A               	movlw	10
  2459  01CE  1283               	bcf	3,5	;RP0=0, select bank0
  2460  01CF  1303               	bcf	3,6	;RP1=0, select bank0
  2461  01D0  00B9               	movwf	??_main
  2462  01D1  0839               	movf	??_main,w
  2463  01D2  00C3               	movwf	main@control_flag
  2464  01D3                     l3744:
  2465                           
  2466                           ;C:/Users/Shreesh Kulkarni/OneDrive/Desktop/Shreesh/Car_Black_Box.X/main.c: 94:         
      +                          switch(control_flag){
  2467  01D3  3017               	movlw	23
  2468  01D4  00B9               	movwf	??_main
  2469  01D5  0839               	movf	??_main,w
  2470  01D6  00C4               	movwf	main@reset_flag
  2471                           
  2472                           ;C:/Users/Shreesh Kulkarni/OneDrive/Desktop/Shreesh/Car_Black_Box.X/main.c: 96:         
      +                                  display_dash_board(event,speed);
  2473  01D7  2ABE               	goto	l3808
  2474  01D8                     l3746:
  2475                           
  2476                           ;C:/Users/Shreesh Kulkarni/OneDrive/Desktop/Shreesh/Car_Black_Box.X/main.c: 98:         
      +                              case 0x02:
  2477  01D8  0845               	movf	main@speed,w
  2478  01D9  00B9               	movwf	??_main
  2479  01DA  0839               	movf	??_main,w
  2480  01DB  00A4               	movwf	log_car_event@speed
  2481  01DC  3012               	movlw	(low (STR_11| (0+32768)))& (0+255)
  2482  01DD  120A  158A  26C9  120A  118A  	fcall	_log_car_event
  2483  01E2                     l3748:
  2484                           
  2485                           ;C:/Users/Shreesh Kulkarni/OneDrive/Desktop/Shreesh/Car_Black_Box.X/main.c: 99:         
      +                                  switch(login(key,reset_flag)){
  2486  01E2  120A  158A  2141  120A  118A  	fcall	_clear_screen
  2487  01E7                     l3750:
  2488                           
  2489                           ;C:/Users/Shreesh Kulkarni/OneDrive/Desktop/Shreesh/Car_Black_Box.X/main.c: 100:        
      +                                       case 0x02:
  2490  01E7  300C               	movlw	12
  2491  01E8  1283               	bcf	3,5	;RP0=0, select bank0
  2492  01E9  1303               	bcf	3,6	;RP1=0, select bank0
  2493  01EA  00B9               	movwf	??_main
  2494  01EB  0839               	movf	??_main,w
  2495  01EC  00C3               	movwf	main@control_flag
  2496  01ED                     l3752:
  2497                           
  2498                           ;C:/Users/Shreesh Kulkarni/OneDrive/Desktop/Shreesh/Car_Black_Box.X/main.c: 101:        
      +                                           control_flag=1;
  2499  01ED  3019               	movlw	25
  2500  01EE  00B9               	movwf	??_main
  2501  01EF  0839               	movf	??_main,w
  2502  01F0  00C4               	movwf	main@reset_flag
  2503                           
  2504                           ;C:/Users/Shreesh Kulkarni/OneDrive/Desktop/Shreesh/Car_Black_Box.X/main.c: 103:        
      +                                           clcd_write(0x0C, 0);
  2505  01F1  2ABE               	goto	l3808
  2506  01F2                     l3756:
  2507  01F2  083E               	movf	main@menu_pos,w
  2508  01F3  00B9               	movwf	??_main
  2509  01F4  01BA               	clrf	??_main+1
  2510                           
  2511                           ; Switch on 2 bytes has been partitioned into a top level switch of size 1, and 1 sub-sw
      +                          itches
  2512                           ; Switch size 1, requested type "simple"
  2513                           ; Number of cases is 1, Range of values is 0 to 0
  2514                           ; switch strategies available:
  2515                           ; Name         Instructions Cycles
  2516                           ; simple_byte            4     3 (average)
  2517                           ; direct_byte           11     8 (fixed)
  2518                           ; jumptable            260     6 (fixed)
  2519                           ;	Chosen strategy is simple_byte
  2520  01F5  083A               	movf	??_main+1,w
  2521  01F6  3A00               	xorlw	0	; case 0
  2522  01F7  1903               	skipnz
  2523  01F8  29FA               	goto	l3956
  2524  01F9  2A05               	goto	l215
  2525  01FA                     l3956:
  2526                           
  2527                           ; Switch size 1, requested type "simple"
  2528                           ; Number of cases is 3, Range of values is 0 to 2
  2529                           ; switch strategies available:
  2530                           ; Name         Instructions Cycles
  2531                           ; simple_byte           10     6 (average)
  2532                           ; direct_byte           17     8 (fixed)
  2533                           ; jumptable            260     6 (fixed)
  2534                           ;	Chosen strategy is simple_byte
  2535  01FA  0839               	movf	??_main,w
  2536  01FB  3A00               	xorlw	0	; case 0
  2537  01FC  1903               	skipnz
  2538  01FD  299F               	goto	l3730
  2539  01FE  3A01               	xorlw	1	; case 1
  2540  01FF  1903               	skipnz
  2541  0200  29BE               	goto	l3738
  2542  0201  3A03               	xorlw	3	; case 2
  2543  0202  1903               	skipnz
  2544  0203  29D8               	goto	l3746
  2545  0204  2A05               	goto	l215
  2546  0205                     l215:
  2547  0205  2ABE               	goto	l3808
  2548  0206                     l3758:
  2549                           
  2550                           ;C:/Users/Shreesh Kulkarni/OneDrive/Desktop/Shreesh/Car_Black_Box.X/main.c: 111:        
      +                                           TMR2ON=0;
  2551  0206  0845               	movf	main@speed,w
  2552  0207  00B9               	movwf	??_main
  2553  0208  0839               	movf	??_main,w
  2554  0209  00A7               	movwf	display_dash_board@speed
  2555  020A  303F               	movlw	(low (main@event| 0))& (0+255)
  2556  020B  120A  158A  2604  120A  118A  	fcall	_display_dash_board
  2557                           
  2558                           ;C:/Users/Shreesh Kulkarni/OneDrive/Desktop/Shreesh/Car_Black_Box.X/main.c: 112:        
      +                                           continue;
  2559  0210  2ADC               	goto	l3810
  2560  0211                     l231:	
  2561                           ;C:/Users/Shreesh Kulkarni/OneDrive/Desktop/Shreesh/Car_Black_Box.X/main.c: 115:        
      +                                   }
  2562                           
  2563                           
  2564                           ;C:/Users/Shreesh Kulkarni/OneDrive/Desktop/Shreesh/Car_Black_Box.X/main.c: 117:        
      +                               case 0x06:
  2565  0211  1112               	bcf	18,2	;volatile
  2566  0212                     l3760:
  2567                           
  2568                           ;C:/Users/Shreesh Kulkarni/OneDrive/Desktop/Shreesh/Car_Black_Box.X/main.c: 118:        
      +                                   menu_pos= login_menu(key,reset_flag);
  2569  0212  01F2               	clrf	clcd_write@mode
  2570  0213  300C               	movlw	12
  2571  0214  120A  118A  27DF  120A  118A  	fcall	_clcd_write
  2572  0219                     l3762:
  2573                           
  2574                           ;C:/Users/Shreesh Kulkarni/OneDrive/Desktop/Shreesh/Car_Black_Box.X/main.c: 119:        
      +                                   break;
  2575  0219  30A5               	movlw	165
  2576  021A  1283               	bcf	3,5	;RP0=0, select bank0
  2577  021B  1303               	bcf	3,6	;RP1=0, select bank0
  2578  021C  00B9               	movwf	??_main
  2579  021D                     u3067:
  2580  021D  0BB9               	decfsz	??_main,f
  2581  021E  2A1D               	goto	u3067
  2582  021F  2A20               	nop2
  2583  0220                     l3764:
  2584                           
  2585                           ;C:/Users/Shreesh Kulkarni/OneDrive/Desktop/Shreesh/Car_Black_Box.X/main.c: 121:        
      +                                   view_log(key,reset_flag);
  2586  0220  3006               	movlw	6
  2587  0221  1283               	bcf	3,5	;RP0=0, select bank0
  2588  0222  1303               	bcf	3,6	;RP1=0, select bank0
  2589  0223  00B9               	movwf	??_main
  2590  0224  0839               	movf	??_main,w
  2591  0225  00C3               	movwf	main@control_flag
  2592  0226                     l3766:
  2593                           
  2594                           ;C:/Users/Shreesh Kulkarni/OneDrive/Desktop/Shreesh/Car_Black_Box.X/main.c: 122:        
      +                                   break;
  2595  0226  3013               	movlw	19
  2596  0227  00B9               	movwf	??_main
  2597  0228  0839               	movf	??_main,w
  2598  0229  00C4               	movwf	main@reset_flag
  2599  022A                     l3768:
  2600                           
  2601                           ;C:/Users/Shreesh Kulkarni/OneDrive/Desktop/Shreesh/Car_Black_Box.X/main.c: 123:        
      +                               case 0x0A:
  2602  022A  120A  158A  2141  120A  118A  	fcall	_clear_screen
  2603  022F                     l3770:
  2604                           
  2605                           ;C:/Users/Shreesh Kulkarni/OneDrive/Desktop/Shreesh/Car_Black_Box.X/main.c: 124:        
      +                                   if(clear_log(reset_flag)==0x11){
  2606  022F  01F2               	clrf	clcd_write@mode
  2607  0230  300C               	movlw	12
  2608  0231  120A  118A  27DF  120A  118A  	fcall	_clcd_write
  2609  0236                     l3772:
  2610                           
  2611                           ;C:/Users/Shreesh Kulkarni/OneDrive/Desktop/Shreesh/Car_Black_Box.X/main.c: 125:        
      +                                       clear_screen();
  2612  0236  30A5               	movlw	165
  2613  0237  1283               	bcf	3,5	;RP0=0, select bank0
  2614  0238  1303               	bcf	3,6	;RP1=0, select bank0
  2615  0239  00B9               	movwf	??_main
  2616  023A                     u3077:
  2617  023A  0BB9               	decfsz	??_main,f
  2618  023B  2A3A               	goto	u3077
  2619  023C  2A3D               	nop2
  2620  023D                     l3774:
  2621                           
  2622                           ;C:/Users/Shreesh Kulkarni/OneDrive/Desktop/Shreesh/Car_Black_Box.X/main.c: 126:        
      +                                       control_flag=0x06;
  2623  023D  1283               	bcf	3,5	;RP0=0, select bank0
  2624  023E  1303               	bcf	3,6	;RP1=0, select bank0
  2625  023F  1112               	bcf	18,2	;volatile
  2626                           
  2627                           ;C:/Users/Shreesh Kulkarni/OneDrive/Desktop/Shreesh/Car_Black_Box.X/main.c: 127:        
      +                                       reset_flag= 0x13;
  2628  0240  288F               	goto	l3668
  2629  0241                     l3780:
  2630  0241  0844               	movf	main@reset_flag,w
  2631  0242  00B9               	movwf	??_main
  2632  0243  0839               	movf	??_main,w
  2633  0244  00A6               	movwf	login@reset_flag
  2634  0245  0846               	movf	main@key,w
  2635  0246  120A  118A  22E3  120A  118A  	fcall	_login
  2636  024B  1283               	bcf	3,5	;RP0=0, select bank0
  2637  024C  1303               	bcf	3,6	;RP1=0, select bank0
  2638  024D  00BA               	movwf	??_main+1
  2639  024E  01BB               	clrf	??_main+2
  2640                           
  2641                           ; Switch on 2 bytes has been partitioned into a top level switch of size 1, and 1 sub-sw
      +                          itches
  2642                           ; Switch size 1, requested type "simple"
  2643                           ; Number of cases is 1, Range of values is 0 to 0
  2644                           ; switch strategies available:
  2645                           ; Name         Instructions Cycles
  2646                           ; simple_byte            4     3 (average)
  2647                           ; direct_byte           11     8 (fixed)
  2648                           ; jumptable            260     6 (fixed)
  2649                           ;	Chosen strategy is simple_byte
  2650  024F  083B               	movf	??_main+2,w
  2651  0250  3A00               	xorlw	0	; case 0
  2652  0251  1903               	skipnz
  2653  0252  2A54               	goto	l3958
  2654  0253  2ADC               	goto	l3810
  2655  0254                     l3958:
  2656                           
  2657                           ; Switch size 1, requested type "simple"
  2658                           ; Number of cases is 2, Range of values is 2 to 17
  2659                           ; switch strategies available:
  2660                           ; Name         Instructions Cycles
  2661                           ; simple_byte            7     4 (average)
  2662                           ; direct_byte           59    11 (fixed)
  2663                           ; jumptable            263     9 (fixed)
  2664                           ;	Chosen strategy is simple_byte
  2665  0254  083A               	movf	??_main+1,w
  2666  0255  3A02               	xorlw	2	; case 2
  2667  0256  1903               	skipnz
  2668  0257  2A11               	goto	l231
  2669  0258  3A13               	xorlw	19	; case 17
  2670  0259  1903               	skipnz
  2671  025A  2A20               	goto	l3764
  2672  025B  2ADC               	goto	l3810
  2673  025C                     l3782:
  2674                           
  2675                           ;C:/Users/Shreesh Kulkarni/OneDrive/Desktop/Shreesh/Car_Black_Box.X/main.c: 133:        
      +                                   switch(change_password(key,reset_flag)){
  2676  025C  0844               	movf	main@reset_flag,w
  2677  025D  00B9               	movwf	??_main
  2678  025E  0839               	movf	??_main,w
  2679  025F  00A6               	movwf	login_menu@reset_flag
  2680  0260  0846               	movf	main@key,w
  2681  0261  120A  118A  272E  120A  118A  	fcall	_login_menu
  2682  0266  1283               	bcf	3,5	;RP0=0, select bank0
  2683  0267  1303               	bcf	3,6	;RP1=0, select bank0
  2684  0268  00BA               	movwf	??_main+1
  2685  0269  083A               	movf	??_main+1,w
  2686  026A  00BE               	movwf	main@menu_pos
  2687                           
  2688                           ;C:/Users/Shreesh Kulkarni/OneDrive/Desktop/Shreesh/Car_Black_Box.X/main.c: 134:        
      +                                       case 0x11:
  2689  026B  2ADC               	goto	l3810
  2690  026C                     l3784:
  2691                           
  2692                           ;C:/Users/Shreesh Kulkarni/OneDrive/Desktop/Shreesh/Car_Black_Box.X/main.c: 136:        
      +                                           clcd_write(0x0C, 0);
  2693  026C  0844               	movf	main@reset_flag,w
  2694  026D  00B9               	movwf	??_main
  2695  026E  0839               	movf	??_main,w
  2696  026F  00A6               	movwf	view_log@reset_flag
  2697  0270  0846               	movf	main@key,w
  2698  0271  120A  118A  25FA  120A  118A  	fcall	_view_log
  2699                           
  2700                           ;C:/Users/Shreesh Kulkarni/OneDrive/Desktop/Shreesh/Car_Black_Box.X/main.c: 137:        
      +                                           _delay((unsigned long)((100)*(20000000/4000000.0)));
  2701  0276  2ADC               	goto	l3810
  2702  0277                     l3786:
  2703                           
  2704                           ;C:/Users/Shreesh Kulkarni/OneDrive/Desktop/Shreesh/Car_Black_Box.X/main.c: 139:        
      +                                           reset_flag= 0x13;
  2705  0277  0844               	movf	main@reset_flag,w
  2706  0278  120A  158A  2396  120A  118A  	fcall	_clear_log
  2707  027D  3A11               	xorlw	17
  2708  027E  1D03               	skipz
  2709  027F  2A81               	goto	u3041
  2710  0280  2A82               	goto	u3040
  2711  0281                     u3041:
  2712  0281  2ADC               	goto	l3810
  2713  0282                     u3040:
  2714  0282                     l3788:
  2715                           
  2716                           ;C:/Users/Shreesh Kulkarni/OneDrive/Desktop/Shreesh/Car_Black_Box.X/main.c: 140:        
      +                                           continue;
  2717  0282  120A  158A  2141  120A  118A  	fcall	_clear_screen
  2718  0287                     l3790:
  2719                           
  2720                           ;C:/Users/Shreesh Kulkarni/OneDrive/Desktop/Shreesh/Car_Black_Box.X/main.c: 141:        
      +                                           break;
  2721  0287  3006               	movlw	6
  2722  0288  1283               	bcf	3,5	;RP0=0, select bank0
  2723  0289  1303               	bcf	3,6	;RP1=0, select bank0
  2724  028A  00B9               	movwf	??_main
  2725  028B  0839               	movf	??_main,w
  2726  028C  00C3               	movwf	main@control_flag
  2727  028D                     l3792:
  2728                           
  2729                           ;C:/Users/Shreesh Kulkarni/OneDrive/Desktop/Shreesh/Car_Black_Box.X/main.c: 142: 
  2730  028D  3013               	movlw	19
  2731  028E  00B9               	movwf	??_main
  2732  028F  0839               	movf	??_main,w
  2733  0290  00C4               	movwf	main@reset_flag
  2734                           
  2735                           ;C:/Users/Shreesh Kulkarni/OneDrive/Desktop/Shreesh/Car_Black_Box.X/main.c: 143: 
  2736  0291  288F               	goto	l3668
  2737  0292                     l3794:
  2738                           
  2739                           ;C:/Users/Shreesh Kulkarni/OneDrive/Desktop/Shreesh/Car_Black_Box.X/main.c: 150: }
  2740  0292  120A  158A  2141  120A  118A  	fcall	_clear_screen
  2741  0297  01F2               	clrf	clcd_write@mode
  2742  0298  300C               	movlw	12
  2743  0299  120A  118A  27DF  120A  118A  	fcall	_clcd_write
  2744  029E                     l3796:
  2745  029E  30A5               	movlw	165
  2746  029F  1283               	bcf	3,5	;RP0=0, select bank0
  2747  02A0  1303               	bcf	3,6	;RP1=0, select bank0
  2748  02A1  00B9               	movwf	??_main
  2749  02A2                     u3087:
  2750  02A2  0BB9               	decfsz	??_main,f
  2751  02A3  2AA2               	goto	u3087
  2752  02A4  2AA5               	nop2
  2753  02A5  2A87               	goto	l3790
  2754  02A6                     l3806:
  2755  02A6  0844               	movf	main@reset_flag,w
  2756  02A7  00B9               	movwf	??_main
  2757  02A8  0839               	movf	??_main,w
  2758  02A9  00A6               	movwf	change_password@reset_flag
  2759  02AA  0846               	movf	main@key,w
  2760  02AB  120A  118A  2482  120A  118A  	fcall	_change_password
  2761  02B0  1283               	bcf	3,5	;RP0=0, select bank0
  2762  02B1  1303               	bcf	3,6	;RP1=0, select bank0
  2763  02B2  00BA               	movwf	??_main+1
  2764  02B3  01BB               	clrf	??_main+2
  2765                           
  2766                           ; Switch on 2 bytes has been partitioned into a top level switch of size 1, and 1 sub-sw
      +                          itches
  2767                           ; Switch size 1, requested type "simple"
  2768                           ; Number of cases is 1, Range of values is 0 to 0
  2769                           ; switch strategies available:
  2770                           ; Name         Instructions Cycles
  2771                           ; simple_byte            4     3 (average)
  2772                           ; direct_byte           11     8 (fixed)
  2773                           ; jumptable            260     6 (fixed)
  2774                           ;	Chosen strategy is simple_byte
  2775  02B4  083B               	movf	??_main+2,w
  2776  02B5  3A00               	xorlw	0	; case 0
  2777  02B6  1903               	skipnz
  2778  02B7  2AB9               	goto	l3960
  2779  02B8  2ADC               	goto	l3810
  2780  02B9                     l3960:
  2781                           
  2782                           ; Switch size 1, requested type "simple"
  2783                           ; Number of cases is 1, Range of values is 17 to 17
  2784                           ; switch strategies available:
  2785                           ; Name         Instructions Cycles
  2786                           ; simple_byte            4     3 (average)
  2787                           ; direct_byte           14    11 (fixed)
  2788                           ; jumptable            263     9 (fixed)
  2789                           ;	Chosen strategy is simple_byte
  2790  02B9  083A               	movf	??_main+1,w
  2791  02BA  3A11               	xorlw	17	; case 17
  2792  02BB  1903               	skipnz
  2793  02BC  2A92               	goto	l3794
  2794  02BD  2ADC               	goto	l3810
  2795  02BE                     l3808:
  2796  02BE  1283               	bcf	3,5	;RP0=0, select bank0
  2797  02BF  1303               	bcf	3,6	;RP1=0, select bank0
  2798  02C0  0843               	movf	main@control_flag,w
  2799  02C1  00B9               	movwf	??_main
  2800  02C2  01BA               	clrf	??_main+1
  2801                           
  2802                           ; Switch on 2 bytes has been partitioned into a top level switch of size 1, and 1 sub-sw
      +                          itches
  2803                           ; Switch size 1, requested type "simple"
  2804                           ; Number of cases is 1, Range of values is 0 to 0
  2805                           ; switch strategies available:
  2806                           ; Name         Instructions Cycles
  2807                           ; simple_byte            4     3 (average)
  2808                           ; direct_byte           11     8 (fixed)
  2809                           ; jumptable            260     6 (fixed)
  2810                           ;	Chosen strategy is simple_byte
  2811  02C3  083A               	movf	??_main+1,w
  2812  02C4  3A00               	xorlw	0	; case 0
  2813  02C5  1903               	skipnz
  2814  02C6  2AC8               	goto	l3962
  2815  02C7  2ADC               	goto	l3810
  2816  02C8                     l3962:
  2817                           
  2818                           ; Switch size 1, requested type "simple"
  2819                           ; Number of cases is 6, Range of values is 1 to 12
  2820                           ; switch strategies available:
  2821                           ; Name         Instructions Cycles
  2822                           ; simple_byte           19    10 (average)
  2823                           ; direct_byte           47    11 (fixed)
  2824                           ; jumptable            263     9 (fixed)
  2825                           ;	Chosen strategy is simple_byte
  2826  02C8  0839               	movf	??_main,w
  2827  02C9  3A01               	xorlw	1	; case 1
  2828  02CA  1903               	skipnz
  2829  02CB  2A06               	goto	l3758
  2830  02CC  3A03               	xorlw	3	; case 2
  2831  02CD  1903               	skipnz
  2832  02CE  2A41               	goto	l3780
  2833  02CF  3A04               	xorlw	4	; case 6
  2834  02D0  1903               	skipnz
  2835  02D1  2A5C               	goto	l3782
  2836  02D2  3A0E               	xorlw	14	; case 8
  2837  02D3  1903               	skipnz
  2838  02D4  2A6C               	goto	l3784
  2839  02D5  3A02               	xorlw	2	; case 10
  2840  02D6  1903               	skipnz
  2841  02D7  2A77               	goto	l3786
  2842  02D8  3A06               	xorlw	6	; case 12
  2843  02D9  1903               	skipnz
  2844  02DA  2AA6               	goto	l3806
  2845  02DB  2ADC               	goto	l3810
  2846  02DC                     l3810:
  2847  02DC  1283               	bcf	3,5	;RP0=0, select bank0
  2848  02DD  1303               	bcf	3,6	;RP1=0, select bank0
  2849  02DE  01C4               	clrf	main@reset_flag
  2850  02DF  288F               	goto	l3668
  2851  02E0  120A  118A  280C   	ljmp	start
  2852  02E3                     __end_of_main:
  2853                           
  2854                           	psect	text1
  2855  05FA                     __ptext1:	
  2856 ;; *************** function _view_log *****************
  2857 ;; Defined at:
  2858 ;;		line 212 in file "C:/Users/Shreesh Kulkarni/OneDrive/Desktop/Shreesh/Car_Black_Box.X/car_black_box_def.c"
  2859 ;; Parameters:    Size  Location     Type
  2860 ;;  key             1    wreg     unsigned char 
  2861 ;;  reset_flag      1    6[BANK0 ] unsigned char 
  2862 ;; Auto vars:     Size  Location     Type
  2863 ;;  key             1   22[BANK0 ] unsigned char 
  2864 ;;  i               2   23[BANK0 ] int 
  2865 ;;  rlog           11   10[BANK0 ] unsigned char [11]
  2866 ;;  addr            1   21[BANK0 ] unsigned char 
  2867 ;; Return value:  Size  Location     Type
  2868 ;;                  1    wreg      void 
  2869 ;; Registers used:
  2870 ;;		wreg, fsr0l, fsr0h, status,2, status,0, btemp+1, pclath, cstack
  2871 ;; Tracked objects:
  2872 ;;		On entry : 0/0
  2873 ;;		On exit  : 0/0
  2874 ;;		Unchanged: 0/0
  2875 ;; Data sizes:     COMMON   BANK0   BANK1   BANK3   BANK2
  2876 ;;      Params:         0       1       0       0       0
  2877 ;;      Locals:         0      15       0       0       0
  2878 ;;      Temps:          0       3       0       0       0
  2879 ;;      Totals:         0      19       0       0       0
  2880 ;;Total ram usage:       19 bytes
  2881 ;; Hardware stack levels used: 1
  2882 ;; Hardware stack levels required when called: 3
  2883 ;; This function calls:
  2884 ;;		___awmod
  2885 ;;		___bmul
  2886 ;;		_clcd_print
  2887 ;;		_clcd_putch
  2888 ;;		_eeprom_read
  2889 ;; This function is called by:
  2890 ;;		_main
  2891 ;; This function uses a non-reentrant model
  2892 ;;
  2893                           
  2894  05FA                     _view_log:	
  2895                           ;psect for function _view_log
  2896                           
  2897                           
  2898                           ;incstack = 0
  2899                           ; Regs used in _view_log: [wreg-fsr0h+status,2+status,0+btemp+1+pclath+cstack]
  2900                           ;view_log@key stored from wreg
  2901  05FA  1283               	bcf	3,5	;RP0=0, select bank0
  2902  05FB  1303               	bcf	3,6	;RP1=0, select bank0
  2903  05FC  00B6               	movwf	view_log@key
  2904  05FD                     l3478:
  2905                           
  2906                           ;C:/Users/Shreesh Kulkarni/OneDrive/Desktop/Shreesh/Car_Black_Box.X/car_black_box_def.c:
      +                           213:     char rlog[11];;C:/Users/Shreesh Kulkarni/OneDrive/Desktop/Shreesh/Car_Black_Bo
      +                          x.X/car_black_box_def.c: 214:     unsigned char addr;;C:/Users/Shreesh Kulkarni/OneDrive
      +                          /Desktop/Shreesh/Car_Black_Box.X/car_black_box_def.c: 215:     static unsigned char rpos
      +                          ;;C:/Users/Shreesh Kulkarni/OneDrive/Desktop/Shreesh/Car_Black_Box.X/car_black_box_def.c
      +                          : 217:     if(event_count==-1)
  2907  05FD  0A4E               	incf	_event_count,w
  2908  05FE  1D03               	skipz
  2909  05FF  2E04               	goto	u2671
  2910  0600  0A4F               	incf	_event_count+1,w
  2911  0601  1D03               	btfss	3,2
  2912  0602  2E04               	goto	u2671
  2913  0603  2E05               	goto	u2670
  2914  0604                     u2671:
  2915  0604  2E13               	goto	l3482
  2916  0605                     u2670:
  2917  0605                     l3480:
  2918                           
  2919                           ;C:/Users/Shreesh Kulkarni/OneDrive/Desktop/Shreesh/Car_Black_Box.X/car_black_box_def.c:
      +                           218:     {;C:/Users/Shreesh Kulkarni/OneDrive/Desktop/Shreesh/Car_Black_Box.X/car_black
      +                          _box_def.c: 219:         clcd_print("NO Logs",(0xC0 + 0));
  2920  0605  30EE               	movlw	low (STR_21| (0+32768))
  2921  0606  00F6               	movwf	clcd_print@str
  2922  0607  3088               	movlw	high (STR_21| (0+32768))
  2923  0608  00F7               	movwf	clcd_print@str+1
  2924  0609  30C0               	movlw	192
  2925  060A  00A7               	movwf	??_view_log
  2926  060B  0827               	movf	??_view_log,w
  2927  060C  00F8               	movwf	clcd_print@addr
  2928  060D  120A  158A  2300  120A  118A  	fcall	_clcd_print
  2929                           
  2930                           ;C:/Users/Shreesh Kulkarni/OneDrive/Desktop/Shreesh/Car_Black_Box.X/car_black_box_def.c:
      +                           221:     }
  2931  0612  2F2D               	goto	l352
  2932  0613                     l3482:
  2933                           
  2934                           ;C:/Users/Shreesh Kulkarni/OneDrive/Desktop/Shreesh/Car_Black_Box.X/car_black_box_def.c:
      +                           223:     {;C:/Users/Shreesh Kulkarni/OneDrive/Desktop/Shreesh/Car_Black_Box.X/car_black
      +                          _box_def.c: 224:        if(reset_flag==0x15)
  2935  0613  3015               	movlw	21
  2936  0614  0626               	xorwf	view_log@reset_flag,w
  2937  0615  1D03               	btfss	3,2
  2938  0616  2E18               	goto	u2681
  2939  0617  2E19               	goto	u2680
  2940  0618                     u2681:
  2941  0618  2E1A               	goto	l3486
  2942  0619                     u2680:
  2943  0619                     l3484:
  2944                           
  2945                           ;C:/Users/Shreesh Kulkarni/OneDrive/Desktop/Shreesh/Car_Black_Box.X/car_black_box_def.c:
      +                           225:     {;C:/Users/Shreesh Kulkarni/OneDrive/Desktop/Shreesh/Car_Black_Box.X/car_black
      +                          _box_def.c: 226:         rpos=0;
  2946  0619  01D0               	clrf	view_log@rpos
  2947  061A                     l3486:
  2948                           
  2949                           ;C:/Users/Shreesh Kulkarni/OneDrive/Desktop/Shreesh/Car_Black_Box.X/car_black_box_def.c:
      +                           228:     if(key==0x2F && rpos<event_count-1)
  2950  061A  302F               	movlw	47
  2951  061B  0636               	xorwf	view_log@key,w
  2952  061C  1D03               	btfss	3,2
  2953  061D  2E1F               	goto	u2691
  2954  061E  2E20               	goto	u2690
  2955  061F                     u2691:
  2956  061F  2E3A               	goto	l3492
  2957  0620                     u2690:
  2958  0620                     l3488:
  2959  0620  084E               	movf	_event_count,w
  2960  0621  3EFF               	addlw	255
  2961  0622  00A7               	movwf	??_view_log
  2962  0623  084F               	movf	_event_count+1,w
  2963  0624  1803               	skipnc
  2964  0625  3E01               	addlw	1
  2965  0626  3EFF               	addlw	255
  2966  0627  00A8               	movwf	??_view_log+1
  2967  0628  0828               	movf	??_view_log+1,w
  2968  0629  3A80               	xorlw	128
  2969  062A  3C80               	sublw	128
  2970  062B  1D03               	skipz
  2971  062C  2E2F               	goto	u2705
  2972  062D  0827               	movf	??_view_log,w
  2973  062E  0250               	subwf	view_log@rpos,w
  2974  062F                     u2705:
  2975  062F  1803               	skipnc
  2976  0630  2E32               	goto	u2701
  2977  0631  2E33               	goto	u2700
  2978  0632                     u2701:
  2979  0632  2E3A               	goto	l3492
  2980  0633                     u2700:
  2981  0633                     l3490:
  2982                           
  2983                           ;C:/Users/Shreesh Kulkarni/OneDrive/Desktop/Shreesh/Car_Black_Box.X/car_black_box_def.c:
      +                           229:     {;C:/Users/Shreesh Kulkarni/OneDrive/Desktop/Shreesh/Car_Black_Box.X/car_black
      +                          _box_def.c: 230:         rpos++;
  2984  0633  3001               	movlw	1
  2985  0634  1283               	bcf	3,5	;RP0=0, select bank0
  2986  0635  1303               	bcf	3,6	;RP1=0, select bank0
  2987  0636  00A7               	movwf	??_view_log
  2988  0637  0827               	movf	??_view_log,w
  2989  0638  07D0               	addwf	view_log@rpos,f
  2990                           
  2991                           ;C:/Users/Shreesh Kulkarni/OneDrive/Desktop/Shreesh/Car_Black_Box.X/car_black_box_def.c:
      +                           231:     }
  2992  0639  2E49               	goto	l3498
  2993  063A                     l3492:
  2994  063A  3037               	movlw	55
  2995  063B  1283               	bcf	3,5	;RP0=0, select bank0
  2996  063C  1303               	bcf	3,6	;RP1=0, select bank0
  2997  063D  0636               	xorwf	view_log@key,w
  2998  063E  1D03               	btfss	3,2
  2999  063F  2E41               	goto	u2711
  3000  0640  2E42               	goto	u2710
  3001  0641                     u2711:
  3002  0641  2E49               	goto	l3498
  3003  0642                     u2710:
  3004  0642                     l3494:
  3005  0642  0850               	movf	view_log@rpos,w
  3006  0643  1903               	btfsc	3,2
  3007  0644  2E46               	goto	u2721
  3008  0645  2E47               	goto	u2720
  3009  0646                     u2721:
  3010  0646  2E49               	goto	l3498
  3011  0647                     u2720:
  3012  0647                     l3496:
  3013                           
  3014                           ;C:/Users/Shreesh Kulkarni/OneDrive/Desktop/Shreesh/Car_Black_Box.X/car_black_box_def.c:
      +                           233:     {;C:/Users/Shreesh Kulkarni/OneDrive/Desktop/Shreesh/Car_Black_Box.X/car_black
      +                          _box_def.c: 234:         rpos--;
  3015  0647  3001               	movlw	1
  3016  0648  02D0               	subwf	view_log@rpos,f
  3017  0649                     l3498:
  3018                           
  3019                           ;C:/Users/Shreesh Kulkarni/OneDrive/Desktop/Shreesh/Car_Black_Box.X/car_black_box_def.c:
      +                           236:     for(int i=0;i<10;i++){
  3020  0649  01B7               	clrf	view_log@i
  3021  064A  01B8               	clrf	view_log@i+1
  3022  064B                     l3504:
  3023                           
  3024                           ;C:/Users/Shreesh Kulkarni/OneDrive/Desktop/Shreesh/Car_Black_Box.X/car_black_box_def.c:
      +                           237:         addr= rpos*10+5;
  3025  064B  300A               	movlw	10
  3026  064C  1283               	bcf	3,5	;RP0=0, select bank0
  3027  064D  1303               	bcf	3,6	;RP1=0, select bank0
  3028  064E  00A7               	movwf	??_view_log
  3029  064F  0827               	movf	??_view_log,w
  3030  0650  00F2               	movwf	___bmul@multiplicand
  3031  0651  0850               	movf	view_log@rpos,w
  3032  0652  120A  158A  21A2  120A  118A  	fcall	___bmul
  3033  0657  3E05               	addlw	5
  3034  0658  1283               	bcf	3,5	;RP0=0, select bank0
  3035  0659  1303               	bcf	3,6	;RP1=0, select bank0
  3036  065A  00A8               	movwf	??_view_log+1
  3037  065B  0828               	movf	??_view_log+1,w
  3038  065C  00B5               	movwf	view_log@addr
  3039  065D                     l3506:
  3040                           
  3041                           ;C:/Users/Shreesh Kulkarni/OneDrive/Desktop/Shreesh/Car_Black_Box.X/car_black_box_def.c:
      +                           238:         rlog[i]=eeprom_read(addr+i);
  3042  065D  0837               	movf	view_log@i,w
  3043  065E  0735               	addwf	view_log@addr,w
  3044  065F  120A  158A  21B7  120A  118A  	fcall	_eeprom_read
  3045  0664  1283               	bcf	3,5	;RP0=0, select bank0
  3046  0665  1303               	bcf	3,6	;RP1=0, select bank0
  3047  0666  00A7               	movwf	??_view_log
  3048  0667  0837               	movf	view_log@i,w
  3049  0668  3E2A               	addlw	(low (view_log@rlog| 0))& (0+255)
  3050  0669  0084               	movwf	4
  3051  066A  0827               	movf	??_view_log,w
  3052  066B  1383               	bcf	3,7	;select IRP bank0
  3053  066C  0080               	movwf	0
  3054  066D                     l3508:
  3055                           
  3056                           ;C:/Users/Shreesh Kulkarni/OneDrive/Desktop/Shreesh/Car_Black_Box.X/car_black_box_def.c:
      +                           240:     }
  3057  066D  3001               	movlw	1
  3058  066E  07B7               	addwf	view_log@i,f
  3059  066F  1803               	skipnc
  3060  0670  0AB8               	incf	view_log@i+1,f
  3061  0671  3000               	movlw	0
  3062  0672  07B8               	addwf	view_log@i+1,f
  3063  0673                     l3510:
  3064  0673  0838               	movf	view_log@i+1,w
  3065  0674  3A80               	xorlw	128
  3066  0675  00FF               	movwf	btemp+1
  3067  0676  3080               	movlw	128
  3068  0677  027F               	subwf	btemp+1,w
  3069  0678  1D03               	skipz
  3070  0679  2E7C               	goto	u2735
  3071  067A  300A               	movlw	10
  3072  067B  0237               	subwf	view_log@i,w
  3073  067C                     u2735:
  3074  067C  1C03               	skipc
  3075  067D  2E7F               	goto	u2731
  3076  067E  2E80               	goto	u2730
  3077  067F                     u2731:
  3078  067F  2E4B               	goto	l3504
  3079  0680                     u2730:
  3080  0680                     l3512:
  3081                           
  3082                           ;C:/Users/Shreesh Kulkarni/OneDrive/Desktop/Shreesh/Car_Black_Box.X/car_black_box_def.c:
      +                           241:     clcd_putch(rpos%10+'0',(0xC0 + 0));
  3083  0680  30C0               	movlw	192
  3084  0681  1283               	bcf	3,5	;RP0=0, select bank0
  3085  0682  1303               	bcf	3,6	;RP1=0, select bank0
  3086  0683  00A7               	movwf	??_view_log
  3087  0684  0827               	movf	??_view_log,w
  3088  0685  00A4               	movwf	clcd_putch@addr
  3089  0686  300A               	movlw	10
  3090  0687  00F2               	movwf	___awmod@divisor
  3091  0688  3000               	movlw	0
  3092  0689  00F3               	movwf	___awmod@divisor+1
  3093  068A  0850               	movf	view_log@rpos,w
  3094  068B  00A8               	movwf	??_view_log+1
  3095  068C  01A9               	clrf	??_view_log+2
  3096  068D  0828               	movf	??_view_log+1,w
  3097  068E  00F4               	movwf	___awmod@dividend
  3098  068F  0829               	movf	??_view_log+2,w
  3099  0690  00F5               	movwf	___awmod@dividend+1
  3100  0691  120A  158A  254C  120A  118A  	fcall	___awmod
  3101  0696  0872               	movf	?___awmod,w
  3102  0697  3E30               	addlw	48
  3103  0698  120A  158A  218D  120A  118A  	fcall	_clcd_putch
  3104                           
  3105                           ;C:/Users/Shreesh Kulkarni/OneDrive/Desktop/Shreesh/Car_Black_Box.X/car_black_box_def.c:
      +                           243:     clcd_putch(rlog[0],(0xC0 + 2));
  3106  069D  30C2               	movlw	194
  3107  069E  1283               	bcf	3,5	;RP0=0, select bank0
  3108  069F  1303               	bcf	3,6	;RP1=0, select bank0
  3109  06A0  00A7               	movwf	??_view_log
  3110  06A1  0827               	movf	??_view_log,w
  3111  06A2  00A4               	movwf	clcd_putch@addr
  3112  06A3  082A               	movf	view_log@rlog,w
  3113  06A4  120A  158A  218D  120A  118A  	fcall	_clcd_putch
  3114                           
  3115                           ;C:/Users/Shreesh Kulkarni/OneDrive/Desktop/Shreesh/Car_Black_Box.X/car_black_box_def.c:
      +                           244:     clcd_putch(rlog[1],(0xC0 + 3));
  3116  06A9  30C3               	movlw	195
  3117  06AA  1283               	bcf	3,5	;RP0=0, select bank0
  3118  06AB  1303               	bcf	3,6	;RP1=0, select bank0
  3119  06AC  00A7               	movwf	??_view_log
  3120  06AD  0827               	movf	??_view_log,w
  3121  06AE  00A4               	movwf	clcd_putch@addr
  3122  06AF  082B               	movf	view_log@rlog+1,w
  3123  06B0  120A  158A  218D  120A  118A  	fcall	_clcd_putch
  3124                           
  3125                           ;C:/Users/Shreesh Kulkarni/OneDrive/Desktop/Shreesh/Car_Black_Box.X/car_black_box_def.c:
      +                           245:     clcd_putch(':',(0xC0 + 4));
  3126  06B5  30C4               	movlw	196
  3127  06B6  1283               	bcf	3,5	;RP0=0, select bank0
  3128  06B7  1303               	bcf	3,6	;RP1=0, select bank0
  3129  06B8  00A7               	movwf	??_view_log
  3130  06B9  0827               	movf	??_view_log,w
  3131  06BA  00A4               	movwf	clcd_putch@addr
  3132  06BB  303A               	movlw	58
  3133  06BC  120A  158A  218D  120A  118A  	fcall	_clcd_putch
  3134                           
  3135                           ;C:/Users/Shreesh Kulkarni/OneDrive/Desktop/Shreesh/Car_Black_Box.X/car_black_box_def.c:
      +                           247:     clcd_putch(rlog[2],(0xC0 + 5));
  3136  06C1  30C5               	movlw	197
  3137  06C2  1283               	bcf	3,5	;RP0=0, select bank0
  3138  06C3  1303               	bcf	3,6	;RP1=0, select bank0
  3139  06C4  00A7               	movwf	??_view_log
  3140  06C5  0827               	movf	??_view_log,w
  3141  06C6  00A4               	movwf	clcd_putch@addr
  3142  06C7  082C               	movf	view_log@rlog+2,w
  3143  06C8  120A  158A  218D  120A  118A  	fcall	_clcd_putch
  3144                           
  3145                           ;C:/Users/Shreesh Kulkarni/OneDrive/Desktop/Shreesh/Car_Black_Box.X/car_black_box_def.c:
      +                           248:     clcd_putch(rlog[3],(0xC0 + 6));
  3146  06CD  30C6               	movlw	198
  3147  06CE  1283               	bcf	3,5	;RP0=0, select bank0
  3148  06CF  1303               	bcf	3,6	;RP1=0, select bank0
  3149  06D0  00A7               	movwf	??_view_log
  3150  06D1  0827               	movf	??_view_log,w
  3151  06D2  00A4               	movwf	clcd_putch@addr
  3152  06D3  082D               	movf	view_log@rlog+3,w
  3153  06D4  120A  158A  218D  120A  118A  	fcall	_clcd_putch
  3154                           
  3155                           ;C:/Users/Shreesh Kulkarni/OneDrive/Desktop/Shreesh/Car_Black_Box.X/car_black_box_def.c:
      +                           249:     clcd_putch(':',(0xC0 + 7));
  3156  06D9  30C7               	movlw	199
  3157  06DA  1283               	bcf	3,5	;RP0=0, select bank0
  3158  06DB  1303               	bcf	3,6	;RP1=0, select bank0
  3159  06DC  00A7               	movwf	??_view_log
  3160  06DD  0827               	movf	??_view_log,w
  3161  06DE  00A4               	movwf	clcd_putch@addr
  3162  06DF  303A               	movlw	58
  3163  06E0  120A  158A  218D  120A  118A  	fcall	_clcd_putch
  3164                           
  3165                           ;C:/Users/Shreesh Kulkarni/OneDrive/Desktop/Shreesh/Car_Black_Box.X/car_black_box_def.c:
      +                           251:     clcd_putch(rlog[4],(0xC0 + 8));
  3166  06E5  30C8               	movlw	200
  3167  06E6  1283               	bcf	3,5	;RP0=0, select bank0
  3168  06E7  1303               	bcf	3,6	;RP1=0, select bank0
  3169  06E8  00A7               	movwf	??_view_log
  3170  06E9  0827               	movf	??_view_log,w
  3171  06EA  00A4               	movwf	clcd_putch@addr
  3172  06EB  082E               	movf	view_log@rlog+4,w
  3173  06EC  120A  158A  218D  120A  118A  	fcall	_clcd_putch
  3174                           
  3175                           ;C:/Users/Shreesh Kulkarni/OneDrive/Desktop/Shreesh/Car_Black_Box.X/car_black_box_def.c:
      +                           252:     clcd_putch(rlog[5],(0xC0 + 9));
  3176  06F1  30C9               	movlw	201
  3177  06F2  1283               	bcf	3,5	;RP0=0, select bank0
  3178  06F3  1303               	bcf	3,6	;RP1=0, select bank0
  3179  06F4  00A7               	movwf	??_view_log
  3180  06F5  0827               	movf	??_view_log,w
  3181  06F6  00A4               	movwf	clcd_putch@addr
  3182  06F7  082F               	movf	view_log@rlog+5,w
  3183  06F8  120A  158A  218D  120A  118A  	fcall	_clcd_putch
  3184                           
  3185                           ;C:/Users/Shreesh Kulkarni/OneDrive/Desktop/Shreesh/Car_Black_Box.X/car_black_box_def.c:
      +                           254:     clcd_putch(rlog[6],(0xC0 + 11));
  3186  06FD  30CB               	movlw	203
  3187  06FE  1283               	bcf	3,5	;RP0=0, select bank0
  3188  06FF  1303               	bcf	3,6	;RP1=0, select bank0
  3189  0700  00A7               	movwf	??_view_log
  3190  0701  0827               	movf	??_view_log,w
  3191  0702  00A4               	movwf	clcd_putch@addr
  3192  0703  0830               	movf	view_log@rlog+6,w
  3193  0704  120A  158A  218D  120A  118A  	fcall	_clcd_putch
  3194                           
  3195                           ;C:/Users/Shreesh Kulkarni/OneDrive/Desktop/Shreesh/Car_Black_Box.X/car_black_box_def.c:
      +                           255:     clcd_putch(rlog[7],(0xC0 + 12));
  3196  0709  30CC               	movlw	204
  3197  070A  1283               	bcf	3,5	;RP0=0, select bank0
  3198  070B  1303               	bcf	3,6	;RP1=0, select bank0
  3199  070C  00A7               	movwf	??_view_log
  3200  070D  0827               	movf	??_view_log,w
  3201  070E  00A4               	movwf	clcd_putch@addr
  3202  070F  0831               	movf	view_log@rlog+7,w
  3203  0710  120A  158A  218D  120A  118A  	fcall	_clcd_putch
  3204                           
  3205                           ;C:/Users/Shreesh Kulkarni/OneDrive/Desktop/Shreesh/Car_Black_Box.X/car_black_box_def.c:
      +                           258:     clcd_putch(rlog[8],(0xC0 + 14));
  3206  0715  30CE               	movlw	206
  3207  0716  1283               	bcf	3,5	;RP0=0, select bank0
  3208  0717  1303               	bcf	3,6	;RP1=0, select bank0
  3209  0718  00A7               	movwf	??_view_log
  3210  0719  0827               	movf	??_view_log,w
  3211  071A  00A4               	movwf	clcd_putch@addr
  3212  071B  0832               	movf	view_log@rlog+8,w
  3213  071C  120A  158A  218D  120A  118A  	fcall	_clcd_putch
  3214                           
  3215                           ;C:/Users/Shreesh Kulkarni/OneDrive/Desktop/Shreesh/Car_Black_Box.X/car_black_box_def.c:
      +                           259:     clcd_putch(rlog[9],(0xC0 + 15));
  3216  0721  30CF               	movlw	207
  3217  0722  1283               	bcf	3,5	;RP0=0, select bank0
  3218  0723  1303               	bcf	3,6	;RP1=0, select bank0
  3219  0724  00A7               	movwf	??_view_log
  3220  0725  0827               	movf	??_view_log,w
  3221  0726  00A4               	movwf	clcd_putch@addr
  3222  0727  0833               	movf	view_log@rlog+9,w
  3223  0728  120A  158A  218D  120A  118A  	fcall	_clcd_putch
  3224  072D                     l352:
  3225  072D  0008               	return
  3226  072E                     __end_of_view_log:
  3227                           
  3228                           	psect	text2
  3229  0A2A                     __ptext2:	
  3230 ;; *************** function _strcpy *****************
  3231 ;; Defined at:
  3232 ;;		line 8 in file "C:\Program Files\Microchip\xc8\v2.36\pic\sources\c90\common\strcpy.c"
  3233 ;; Parameters:    Size  Location     Type
  3234 ;;  to              1    wreg     PTR unsigned char 
  3235 ;;		 -> main@event(3), 
  3236 ;;  from            2    2[COMMON] PTR const unsigned char 
  3237 ;;		 -> STR_7(3), STR_6(3), STR_5(3), STR_4(3), 
  3238 ;;		 -> STR_3(3), STR_2(3), STR_1(3), 
  3239 ;; Auto vars:     Size  Location     Type
  3240 ;;  to              1    6[COMMON] PTR unsigned char 
  3241 ;;		 -> main@event(3), 
  3242 ;;  cp              1    5[COMMON] PTR unsigned char 
  3243 ;;		 -> main@event(3), 
  3244 ;; Return value:  Size  Location     Type
  3245 ;;                  1    wreg      PTR unsigned char 
  3246 ;; Registers used:
  3247 ;;		wreg, fsr0l, fsr0h, status,2, status,0, btemp+1, pclath
  3248 ;; Tracked objects:
  3249 ;;		On entry : 0/0
  3250 ;;		On exit  : 0/0
  3251 ;;		Unchanged: 0/0
  3252 ;; Data sizes:     COMMON   BANK0   BANK1   BANK3   BANK2
  3253 ;;      Params:         2       0       0       0       0
  3254 ;;      Locals:         2       0       0       0       0
  3255 ;;      Temps:          1       0       0       0       0
  3256 ;;      Totals:         5       0       0       0       0
  3257 ;;Total ram usage:        5 bytes
  3258 ;; Hardware stack levels used: 2
  3259 ;; Hardware stack levels required when called: 1
  3260 ;; This function calls:
  3261 ;;		Nothing
  3262 ;; This function is called by:
  3263 ;;		_main
  3264 ;; This function uses a non-reentrant model
  3265 ;;
  3266                           
  3267  0A2A                     _strcpy:	
  3268                           ;psect for function _strcpy
  3269                           
  3270                           
  3271                           ;incstack = 0
  3272                           ; Regs used in _strcpy: [wreg-fsr0h+status,2+status,0+btemp+1+pclath]
  3273                           ;strcpy@to stored from wreg
  3274  0A2A  00F6               	movwf	strcpy@to
  3275  0A2B                     l2492:
  3276  0A2B  0876               	movf	strcpy@to,w
  3277  0A2C  00F4               	movwf	??_strcpy
  3278  0A2D  0874               	movf	??_strcpy,w
  3279  0A2E  00F5               	movwf	strcpy@cp
  3280  0A2F  2A3A               	goto	l2498
  3281  0A30                     l2494:
  3282  0A30  3001               	movlw	1
  3283  0A31  00F4               	movwf	??_strcpy
  3284  0A32  0874               	movf	??_strcpy,w
  3285  0A33  07F5               	addwf	strcpy@cp,f
  3286  0A34                     l2496:
  3287  0A34  3001               	movlw	1
  3288  0A35  07F2               	addwf	strcpy@from,f
  3289  0A36  1803               	skipnc
  3290  0A37  0AF3               	incf	strcpy@from+1,f
  3291  0A38  3000               	movlw	0
  3292  0A39  07F3               	addwf	strcpy@from+1,f
  3293  0A3A                     l2498:
  3294  0A3A  0873               	movf	strcpy@from+1,w
  3295  0A3B  1283               	bcf	3,5	;RP0=0, select bank0
  3296  0A3C  1303               	bcf	3,6	;RP1=0, select bank0
  3297  0A3D  00FF               	movwf	btemp+1
  3298  0A3E  0872               	movf	strcpy@from,w
  3299  0A3F  0084               	movwf	4
  3300  0A40  120A  158A  2118  120A  158A  	fcall	stringtab
  3301  0A45  00F4               	movwf	??_strcpy
  3302  0A46  0875               	movf	strcpy@cp,w
  3303  0A47  0084               	movwf	4
  3304  0A48  0874               	movf	??_strcpy,w
  3305  0A49  1383               	bcf	3,7	;select IRP bank0
  3306  0A4A  0080               	movwf	0
  3307  0A4B  0800               	movf	0,w
  3308  0A4C  1D03               	btfss	3,2
  3309  0A4D  2A4F               	goto	u1701
  3310  0A4E  2A50               	goto	u1700
  3311  0A4F                     u1701:
  3312  0A4F  2A30               	goto	l2494
  3313  0A50                     u1700:
  3314  0A50                     l985:
  3315  0A50  0008               	return
  3316  0A51                     __end_of_strcpy:
  3317                           
  3318                           	psect	text3
  3319  0A51                     __ptext3:	
  3320 ;; *************** function _read_digital_keypad *****************
  3321 ;; Defined at:
  3322 ;;		line 21 in file "C:/Users/Shreesh Kulkarni/OneDrive/Desktop/Shreesh/Car_Black_Box.X/digital_keypad.c"
  3323 ;; Parameters:    Size  Location     Type
  3324 ;;  mode            1    wreg     unsigned char 
  3325 ;; Auto vars:     Size  Location     Type
  3326 ;;  mode            1    3[COMMON] unsigned char 
  3327 ;; Return value:  Size  Location     Type
  3328 ;;                  1    wreg      unsigned char 
  3329 ;; Registers used:
  3330 ;;		wreg, status,2, status,0
  3331 ;; Tracked objects:
  3332 ;;		On entry : 0/0
  3333 ;;		On exit  : 0/0
  3334 ;;		Unchanged: 0/0
  3335 ;; Data sizes:     COMMON   BANK0   BANK1   BANK3   BANK2
  3336 ;;      Params:         0       0       0       0       0
  3337 ;;      Locals:         1       0       0       0       0
  3338 ;;      Temps:          1       0       0       0       0
  3339 ;;      Totals:         2       0       0       0       0
  3340 ;;Total ram usage:        2 bytes
  3341 ;; Hardware stack levels used: 1
  3342 ;; Hardware stack levels required when called: 1
  3343 ;; This function calls:
  3344 ;;		Nothing
  3345 ;; This function is called by:
  3346 ;;		_main
  3347 ;; This function uses a non-reentrant model
  3348 ;;
  3349                           
  3350  0A51                     _read_digital_keypad:	
  3351                           ;psect for function _read_digital_keypad
  3352                           
  3353                           
  3354                           ;incstack = 0
  3355                           ; Regs used in _read_digital_keypad: [wreg+status,2+status,0]
  3356                           ;read_digital_keypad@mode stored from wreg
  3357  0A51  00F3               	movwf	read_digital_keypad@mode
  3358  0A52                     l2436:
  3359                           
  3360                           ;C:/Users/Shreesh Kulkarni/OneDrive/Desktop/Shreesh/Car_Black_Box.X/digital_keypad.c: 21
      +                          : unsigned char read_digital_keypad(unsigned char mode);C:/Users/Shreesh Kulkarni/OneDri
      +                          ve/Desktop/Shreesh/Car_Black_Box.X/digital_keypad.c: 22: {;C:/Users/Shreesh Kulkarni/One
      +                          Drive/Desktop/Shreesh/Car_Black_Box.X/digital_keypad.c: 23:     static unsigned char onc
      +                          e = 1;;C:/Users/Shreesh Kulkarni/OneDrive/Desktop/Shreesh/Car_Black_Box.X/digital_keypad
      +                          .c: 25:     if (mode == 0)
  3361  0A52  0873               	movf	read_digital_keypad@mode,w
  3362  0A53  1D03               	btfss	3,2
  3363  0A54  2A56               	goto	u1651
  3364  0A55  2A57               	goto	u1650
  3365  0A56                     u1651:
  3366  0A56  2A5C               	goto	l2444
  3367  0A57                     u1650:
  3368  0A57                     l2438:
  3369                           
  3370                           ;C:/Users/Shreesh Kulkarni/OneDrive/Desktop/Shreesh/Car_Black_Box.X/digital_keypad.c: 26
      +                          :     {;C:/Users/Shreesh Kulkarni/OneDrive/Desktop/Shreesh/Car_Black_Box.X/digital_keypa
      +                          d.c: 27:         return PORTB & 0x3F;
  3371  0A57  1283               	bcf	3,5	;RP0=0, select bank0
  3372  0A58  1303               	bcf	3,6	;RP1=0, select bank0
  3373  0A59  0806               	movf	6,w	;volatile
  3374  0A5A  393F               	andlw	63
  3375  0A5B  2A7A               	goto	l13
  3376  0A5C                     l2444:
  3377                           
  3378                           ;C:/Users/Shreesh Kulkarni/OneDrive/Desktop/Shreesh/Car_Black_Box.X/digital_keypad.c: 30
      +                          :     {;C:/Users/Shreesh Kulkarni/OneDrive/Desktop/Shreesh/Car_Black_Box.X/digital_keypa
      +                          d.c: 31:         if (((PORTB & 0x3F) != 0x3F) && once)
  3379  0A5C  303F               	movlw	63
  3380  0A5D  1283               	bcf	3,5	;RP0=0, select bank0
  3381  0A5E  1303               	bcf	3,6	;RP1=0, select bank0
  3382  0A5F  0506               	andwf	6,w	;volatile
  3383  0A60  00F2               	movwf	??_read_digital_keypad
  3384  0A61  303F               	movlw	63
  3385  0A62  0672               	xorwf	??_read_digital_keypad,w
  3386  0A63  1903               	btfsc	3,2
  3387  0A64  2A66               	goto	u1661
  3388  0A65  2A67               	goto	u1660
  3389  0A66                     u1661:
  3390  0A66  2A6E               	goto	l2456
  3391  0A67                     u1660:
  3392  0A67                     l2446:
  3393  0A67  087B               	movf	read_digital_keypad@once,w
  3394  0A68  1903               	btfsc	3,2
  3395  0A69  2A6B               	goto	u1671
  3396  0A6A  2A6C               	goto	u1670
  3397  0A6B                     u1671:
  3398  0A6B  2A6E               	goto	l2456
  3399  0A6C                     u1670:
  3400  0A6C                     l2448:
  3401                           
  3402                           ;C:/Users/Shreesh Kulkarni/OneDrive/Desktop/Shreesh/Car_Black_Box.X/digital_keypad.c: 32
      +                          :         {;C:/Users/Shreesh Kulkarni/OneDrive/Desktop/Shreesh/Car_Black_Box.X/digital_k
      +                          eypad.c: 33:             once = 0;
  3403  0A6C  01FB               	clrf	read_digital_keypad@once
  3404  0A6D  2A57               	goto	l2438
  3405  0A6E                     l2456:
  3406  0A6E  303F               	movlw	63
  3407  0A6F  0506               	andwf	6,w	;volatile
  3408  0A70  00F2               	movwf	??_read_digital_keypad
  3409  0A71  303F               	movlw	63
  3410  0A72  0672               	xorwf	??_read_digital_keypad,w
  3411  0A73  1D03               	btfss	3,2
  3412  0A74  2A76               	goto	u1681
  3413  0A75  2A77               	goto	u1680
  3414  0A76                     u1681:
  3415  0A76  2A79               	goto	l2460
  3416  0A77                     u1680:
  3417  0A77                     l2458:
  3418                           
  3419                           ;C:/Users/Shreesh Kulkarni/OneDrive/Desktop/Shreesh/Car_Black_Box.X/digital_keypad.c: 38
      +                          :         {;C:/Users/Shreesh Kulkarni/OneDrive/Desktop/Shreesh/Car_Black_Box.X/digital_k
      +                          eypad.c: 39:             once = 1;
  3420  0A77  01FB               	clrf	read_digital_keypad@once
  3421  0A78  0AFB               	incf	read_digital_keypad@once,f
  3422  0A79                     l2460:
  3423                           
  3424                           ;C:/Users/Shreesh Kulkarni/OneDrive/Desktop/Shreesh/Car_Black_Box.X/digital_keypad.c: 43
      +                          :     return 0x3F;
  3425  0A79  303F               	movlw	63
  3426  0A7A                     l13:
  3427  0A7A  0008               	return
  3428  0A7B                     __end_of_read_digital_keypad:
  3429                           
  3430                           	psect	text4
  3431  0968                     __ptext4:	
  3432 ;; *************** function _read_adc *****************
  3433 ;; Defined at:
  3434 ;;		line 19 in file "C:/Users/Shreesh Kulkarni/OneDrive/Desktop/Shreesh/Car_Black_Box.X/adc.c"
  3435 ;; Parameters:    Size  Location     Type
  3436 ;;		None
  3437 ;; Auto vars:     Size  Location     Type
  3438 ;;  adc_reg_val     2    4[COMMON] unsigned short 
  3439 ;; Return value:  Size  Location     Type
  3440 ;;                  2    2[COMMON] unsigned short 
  3441 ;; Registers used:
  3442 ;;		wreg
  3443 ;; Tracked objects:
  3444 ;;		On entry : 0/0
  3445 ;;		On exit  : 0/0
  3446 ;;		Unchanged: 0/0
  3447 ;; Data sizes:     COMMON   BANK0   BANK1   BANK3   BANK2
  3448 ;;      Params:         2       0       0       0       0
  3449 ;;      Locals:         2       0       0       0       0
  3450 ;;      Temps:          0       0       0       0       0
  3451 ;;      Totals:         4       0       0       0       0
  3452 ;;Total ram usage:        4 bytes
  3453 ;; Hardware stack levels used: 1
  3454 ;; Hardware stack levels required when called: 1
  3455 ;; This function calls:
  3456 ;;		Nothing
  3457 ;; This function is called by:
  3458 ;;		_main
  3459 ;; This function uses a non-reentrant model
  3460 ;;
  3461                           
  3462  0968                     _read_adc:	
  3463                           ;psect for function _read_adc
  3464                           
  3465  0968                     l2464:	
  3466                           ;incstack = 0
  3467                           ; Regs used in _read_adc: [wreg]
  3468                           
  3469                           
  3470                           ;C:/Users/Shreesh Kulkarni/OneDrive/Desktop/Shreesh/Car_Black_Box.X/adc.c: 21:     unsig
      +                          ned short adc_reg_val;;C:/Users/Shreesh Kulkarni/OneDrive/Desktop/Shreesh/Car_Black_Box.
      +                          X/adc.c: 24:     GO = 1;
  3471  0968  1283               	bcf	3,5	;RP0=0, select bank0
  3472  0969  1303               	bcf	3,6	;RP1=0, select bank0
  3473  096A  151F               	bsf	31,2	;volatile
  3474  096B                     l35:	
  3475                           ;C:/Users/Shreesh Kulkarni/OneDrive/Desktop/Shreesh/Car_Black_Box.X/adc.c: 27:     while
      +                           (nDONE);
  3476                           
  3477  096B  191F               	btfsc	31,2	;volatile
  3478  096C  296E               	goto	u1691
  3479  096D  296F               	goto	u1690
  3480  096E                     u1691:
  3481  096E  296B               	goto	l35
  3482  096F                     u1690:
  3483  096F                     l2466:
  3484                           
  3485                           ;C:/Users/Shreesh Kulkarni/OneDrive/Desktop/Shreesh/Car_Black_Box.X/adc.c: 29:     adc_r
      +                          eg_val = (ADRESH << 8) | ADRESL;
  3486  096F  081E               	movf	30,w	;volatile
  3487  0970  00F5               	movwf	read_adc@adc_reg_val+1
  3488  0971  1683               	bsf	3,5	;RP0=1, select bank1
  3489  0972  1303               	bcf	3,6	;RP1=0, select bank1
  3490  0973  081E               	movf	30,w	;volatile
  3491  0974  00F4               	movwf	read_adc@adc_reg_val
  3492                           
  3493                           ;C:/Users/Shreesh Kulkarni/OneDrive/Desktop/Shreesh/Car_Black_Box.X/adc.c: 31:     retur
      +                          n adc_reg_val;
  3494  0975  0875               	movf	read_adc@adc_reg_val+1,w
  3495  0976  00F3               	movwf	?_read_adc+1
  3496  0977  0874               	movf	read_adc@adc_reg_val,w
  3497  0978  00F2               	movwf	?_read_adc
  3498  0979                     l38:
  3499  0979  0008               	return
  3500  097A                     __end_of_read_adc:
  3501                           
  3502                           	psect	text5
  3503  072E                     __ptext5:	
  3504 ;; *************** function _login_menu *****************
  3505 ;; Defined at:
  3506 ;;		line 183 in file "C:/Users/Shreesh Kulkarni/OneDrive/Desktop/Shreesh/Car_Black_Box.X/car_black_box_def.c"
  3507 ;; Parameters:    Size  Location     Type
  3508 ;;  key             1    wreg     unsigned char 
  3509 ;;  reset_flag      1    6[BANK0 ] unsigned char 
  3510 ;; Auto vars:     Size  Location     Type
  3511 ;;  key             1   10[BANK0 ] unsigned char 
  3512 ;; Return value:  Size  Location     Type
  3513 ;;                  1    wreg      unsigned char 
  3514 ;; Registers used:
  3515 ;;		wreg, fsr0l, fsr0h, status,2, status,0, btemp+1, pclath, cstack
  3516 ;; Tracked objects:
  3517 ;;		On entry : 0/0
  3518 ;;		On exit  : 0/0
  3519 ;;		Unchanged: 0/0
  3520 ;; Data sizes:     COMMON   BANK0   BANK1   BANK3   BANK2
  3521 ;;      Params:         0       1       0       0       0
  3522 ;;      Locals:         0       1       0       0       0
  3523 ;;      Temps:          0       3       0       0       0
  3524 ;;      Totals:         0       5       0       0       0
  3525 ;;Total ram usage:        5 bytes
  3526 ;; Hardware stack levels used: 1
  3527 ;; Hardware stack levels required when called: 3
  3528 ;; This function calls:
  3529 ;;		_clcd_print
  3530 ;;		_clcd_putch
  3531 ;;		_clear_screen
  3532 ;; This function is called by:
  3533 ;;		_main
  3534 ;; This function uses a non-reentrant model
  3535 ;;
  3536                           
  3537  072E                     _login_menu:	
  3538                           ;psect for function _login_menu
  3539                           
  3540                           
  3541                           ;incstack = 0
  3542                           ; Regs used in _login_menu: [wreg-fsr0h+status,2+status,0+btemp+1+pclath+cstack]
  3543                           ;login_menu@key stored from wreg
  3544  072E  1283               	bcf	3,5	;RP0=0, select bank0
  3545  072F  1303               	bcf	3,6	;RP1=0, select bank0
  3546  0730  00AA               	movwf	login_menu@key
  3547  0731                     l3440:
  3548                           
  3549                           ;C:/Users/Shreesh Kulkarni/OneDrive/Desktop/Shreesh/Car_Black_Box.X/car_black_box_def.c:
      +                           183: char login_menu(unsigned char key,unsigned char reset_flag);C:/Users/Shreesh Kulka
      +                          rni/OneDrive/Desktop/Shreesh/Car_Black_Box.X/car_black_box_def.c: 184: {;C:/Users/Shrees
      +                          h Kulkarni/OneDrive/Desktop/Shreesh/Car_Black_Box.X/car_black_box_def.c: 186:     static
      +                           char menu_pos;;C:/Users/Shreesh Kulkarni/OneDrive/Desktop/Shreesh/Car_Black_Box.X/car_b
      +                          lack_box_def.c: 187:     if(reset_flag==0x13){
  3550  0731  3013               	movlw	19
  3551  0732  0626               	xorwf	login_menu@reset_flag,w
  3552  0733  1D03               	btfss	3,2
  3553  0734  2F36               	goto	u2601
  3554  0735  2F37               	goto	u2600
  3555  0736                     u2601:
  3556  0736  2F38               	goto	l3444
  3557  0737                     u2600:
  3558  0737                     l3442:
  3559                           
  3560                           ;C:/Users/Shreesh Kulkarni/OneDrive/Desktop/Shreesh/Car_Black_Box.X/car_black_box_def.c:
      +                           188:         menu_pos=0;
  3561  0737  01D1               	clrf	login_menu@menu_pos
  3562  0738                     l3444:
  3563                           
  3564                           ;C:/Users/Shreesh Kulkarni/OneDrive/Desktop/Shreesh/Car_Black_Box.X/car_black_box_def.c:
      +                           190:     if(key==0x2F && menu_pos<2){
  3565  0738  302F               	movlw	47
  3566  0739  062A               	xorwf	login_menu@key,w
  3567  073A  1D03               	btfss	3,2
  3568  073B  2F3D               	goto	u2611
  3569  073C  2F3E               	goto	u2610
  3570  073D                     u2611:
  3571  073D  2F4E               	goto	l3452
  3572  073E                     u2610:
  3573  073E                     l3446:
  3574  073E  3002               	movlw	2
  3575  073F  0251               	subwf	login_menu@menu_pos,w
  3576  0740  1803               	skipnc
  3577  0741  2F43               	goto	u2621
  3578  0742  2F44               	goto	u2620
  3579  0743                     u2621:
  3580  0743  2F4E               	goto	l3452
  3581  0744                     u2620:
  3582  0744                     l3448:
  3583                           
  3584                           ;C:/Users/Shreesh Kulkarni/OneDrive/Desktop/Shreesh/Car_Black_Box.X/car_black_box_def.c:
      +                           191:         menu_pos++;
  3585  0744  3001               	movlw	1
  3586  0745  00A7               	movwf	??_login_menu
  3587  0746  0827               	movf	??_login_menu,w
  3588  0747  07D1               	addwf	login_menu@menu_pos,f
  3589  0748                     l3450:
  3590                           
  3591                           ;C:/Users/Shreesh Kulkarni/OneDrive/Desktop/Shreesh/Car_Black_Box.X/car_black_box_def.c:
      +                           192:         clear_screen();
  3592  0748  120A  158A  2141  120A  118A  	fcall	_clear_screen
  3593                           
  3594                           ;C:/Users/Shreesh Kulkarni/OneDrive/Desktop/Shreesh/Car_Black_Box.X/car_black_box_def.c:
      +                           193:     }
  3595  074D  2F5C               	goto	l3460
  3596  074E                     l3452:
  3597  074E  3037               	movlw	55
  3598  074F  062A               	xorwf	login_menu@key,w
  3599  0750  1D03               	btfss	3,2
  3600  0751  2F53               	goto	u2631
  3601  0752  2F54               	goto	u2630
  3602  0753                     u2631:
  3603  0753  2F5C               	goto	l3460
  3604  0754                     u2630:
  3605  0754                     l3454:
  3606  0754  0851               	movf	login_menu@menu_pos,w
  3607  0755  1903               	btfsc	3,2
  3608  0756  2F58               	goto	u2641
  3609  0757  2F59               	goto	u2640
  3610  0758                     u2641:
  3611  0758  2F5C               	goto	l3460
  3612  0759                     u2640:
  3613  0759                     l3456:
  3614                           
  3615                           ;C:/Users/Shreesh Kulkarni/OneDrive/Desktop/Shreesh/Car_Black_Box.X/car_black_box_def.c:
      +                           195:     {;C:/Users/Shreesh Kulkarni/OneDrive/Desktop/Shreesh/Car_Black_Box.X/car_black
      +                          _box_def.c: 196:        menu_pos--;
  3616  0759  3001               	movlw	1
  3617  075A  02D1               	subwf	login_menu@menu_pos,f
  3618  075B  2F48               	goto	l3450
  3619  075C                     l3460:
  3620                           
  3621                           ;C:/Users/Shreesh Kulkarni/OneDrive/Desktop/Shreesh/Car_Black_Box.X/car_black_box_def.c:
      +                           199:     if(menu_pos<2){
  3622  075C  3002               	movlw	2
  3623  075D  1283               	bcf	3,5	;RP0=0, select bank0
  3624  075E  1303               	bcf	3,6	;RP1=0, select bank0
  3625  075F  0251               	subwf	login_menu@menu_pos,w
  3626  0760  1803               	skipnc
  3627  0761  2F63               	goto	u2651
  3628  0762  2F64               	goto	u2650
  3629  0763                     u2651:
  3630  0763  2F9D               	goto	l3468
  3631  0764                     u2650:
  3632  0764                     l3462:
  3633                           
  3634                           ;C:/Users/Shreesh Kulkarni/OneDrive/Desktop/Shreesh/Car_Black_Box.X/car_black_box_def.c:
      +                           200:         clcd_putch('*',(0x80 + 0));
  3635  0764  3080               	movlw	128
  3636  0765  00A7               	movwf	??_login_menu
  3637  0766  0827               	movf	??_login_menu,w
  3638  0767  00A4               	movwf	clcd_putch@addr
  3639  0768  302A               	movlw	42
  3640  0769  120A  158A  218D  120A  118A  	fcall	_clcd_putch
  3641  076E                     l3464:
  3642                           
  3643                           ;C:/Users/Shreesh Kulkarni/OneDrive/Desktop/Shreesh/Car_Black_Box.X/car_black_box_def.c:
      +                           201:         clcd_print(menu[menu_pos],(0x80 + 2));
  3644  076E  1283               	bcf	3,5	;RP0=0, select bank0
  3645  076F  1303               	bcf	3,6	;RP1=0, select bank0
  3646  0770  0851               	movf	login_menu@menu_pos,w
  3647  0771  00A7               	movwf	??_login_menu
  3648  0772  0727               	addwf	??_login_menu,w
  3649  0773  3E65               	addlw	(low (_menu| 0))& (0+255)
  3650  0774  0084               	movwf	4
  3651  0775  1383               	bcf	3,7	;select IRP bank0
  3652  0776  0800               	movf	0,w
  3653  0777  00F6               	movwf	clcd_print@str
  3654  0778  0A84               	incf	4,f
  3655  0779  0800               	movf	0,w
  3656  077A  0384               	decf	4,f
  3657  077B  00F7               	movwf	clcd_print@str+1
  3658  077C  3082               	movlw	130
  3659  077D  00A9               	movwf	??_login_menu+2
  3660  077E  0829               	movf	??_login_menu+2,w
  3661  077F  00F8               	movwf	clcd_print@addr
  3662  0780  120A  158A  2300  120A  118A  	fcall	_clcd_print
  3663  0785                     l3466:
  3664                           
  3665                           ;C:/Users/Shreesh Kulkarni/OneDrive/Desktop/Shreesh/Car_Black_Box.X/car_black_box_def.c:
      +                           202:         clcd_print(menu[menu_pos+1],(0xC0 + 2));
  3666  0785  1283               	bcf	3,5	;RP0=0, select bank0
  3667  0786  1303               	bcf	3,6	;RP1=0, select bank0
  3668  0787  0851               	movf	login_menu@menu_pos,w
  3669  0788  00A7               	movwf	??_login_menu
  3670  0789  0727               	addwf	??_login_menu,w
  3671  078A  3E67               	addlw	(low ((_menu| 0+2)))& (0+255)
  3672  078B  0084               	movwf	4
  3673  078C  1383               	bcf	3,7	;select IRP bank0
  3674  078D  0800               	movf	0,w
  3675  078E  00F6               	movwf	clcd_print@str
  3676  078F  0A84               	incf	4,f
  3677  0790  0800               	movf	0,w
  3678  0791  0384               	decf	4,f
  3679  0792  00F7               	movwf	clcd_print@str+1
  3680  0793  30C2               	movlw	194
  3681  0794  00A9               	movwf	??_login_menu+2
  3682  0795  0829               	movf	??_login_menu+2,w
  3683  0796  00F8               	movwf	clcd_print@addr
  3684  0797  120A  158A  2300  120A  118A  	fcall	_clcd_print
  3685                           
  3686                           ;C:/Users/Shreesh Kulkarni/OneDrive/Desktop/Shreesh/Car_Black_Box.X/car_black_box_def.c:
      +                           203:     }
  3687  079C  2FDB               	goto	l3474
  3688  079D                     l3468:
  3689  079D  3002               	movlw	2
  3690  079E  0651               	xorwf	login_menu@menu_pos,w
  3691  079F  1D03               	btfss	3,2
  3692  07A0  2FA2               	goto	u2661
  3693  07A1  2FA3               	goto	u2660
  3694  07A2                     u2661:
  3695  07A2  2FDB               	goto	l3474
  3696  07A3                     u2660:
  3697  07A3                     l3470:
  3698                           
  3699                           ;C:/Users/Shreesh Kulkarni/OneDrive/Desktop/Shreesh/Car_Black_Box.X/car_black_box_def.c:
      +                           205:         clcd_print(menu[menu_pos-1],(0x80 + 2));
  3700  07A3  0851               	movf	login_menu@menu_pos,w
  3701  07A4  00A7               	movwf	??_login_menu
  3702  07A5  0727               	addwf	??_login_menu,w
  3703  07A6  3E63               	addlw	(low ((_menu| 0+254)))& (0+255)
  3704  07A7  0084               	movwf	4
  3705  07A8  1383               	bcf	3,7	;select IRP bank0
  3706  07A9  0800               	movf	0,w
  3707  07AA  00F6               	movwf	clcd_print@str
  3708  07AB  0A84               	incf	4,f
  3709  07AC  0800               	movf	0,w
  3710  07AD  0384               	decf	4,f
  3711  07AE  00F7               	movwf	clcd_print@str+1
  3712  07AF  3082               	movlw	130
  3713  07B0  00A9               	movwf	??_login_menu+2
  3714  07B1  0829               	movf	??_login_menu+2,w
  3715  07B2  00F8               	movwf	clcd_print@addr
  3716  07B3  120A  158A  2300  120A  118A  	fcall	_clcd_print
  3717                           
  3718                           ;C:/Users/Shreesh Kulkarni/OneDrive/Desktop/Shreesh/Car_Black_Box.X/car_black_box_def.c:
      +                           206:         clcd_print(menu[menu_pos],(0xC0 + 2));
  3719  07B8  1283               	bcf	3,5	;RP0=0, select bank0
  3720  07B9  1303               	bcf	3,6	;RP1=0, select bank0
  3721  07BA  0851               	movf	login_menu@menu_pos,w
  3722  07BB  00A7               	movwf	??_login_menu
  3723  07BC  0727               	addwf	??_login_menu,w
  3724  07BD  3E65               	addlw	(low (_menu| 0))& (0+255)
  3725  07BE  0084               	movwf	4
  3726  07BF  1383               	bcf	3,7	;select IRP bank0
  3727  07C0  0800               	movf	0,w
  3728  07C1  00F6               	movwf	clcd_print@str
  3729  07C2  0A84               	incf	4,f
  3730  07C3  0800               	movf	0,w
  3731  07C4  0384               	decf	4,f
  3732  07C5  00F7               	movwf	clcd_print@str+1
  3733  07C6  30C2               	movlw	194
  3734  07C7  00A9               	movwf	??_login_menu+2
  3735  07C8  0829               	movf	??_login_menu+2,w
  3736  07C9  00F8               	movwf	clcd_print@addr
  3737  07CA  120A  158A  2300  120A  118A  	fcall	_clcd_print
  3738  07CF                     l3472:
  3739                           
  3740                           ;C:/Users/Shreesh Kulkarni/OneDrive/Desktop/Shreesh/Car_Black_Box.X/car_black_box_def.c:
      +                           207:         clcd_putch('*',(0xC0 + 0));
  3741  07CF  30C0               	movlw	192
  3742  07D0  1283               	bcf	3,5	;RP0=0, select bank0
  3743  07D1  1303               	bcf	3,6	;RP1=0, select bank0
  3744  07D2  00A7               	movwf	??_login_menu
  3745  07D3  0827               	movf	??_login_menu,w
  3746  07D4  00A4               	movwf	clcd_putch@addr
  3747  07D5  302A               	movlw	42
  3748  07D6  120A  158A  218D  120A  118A  	fcall	_clcd_putch
  3749  07DB                     l3474:
  3750                           
  3751                           ;C:/Users/Shreesh Kulkarni/OneDrive/Desktop/Shreesh/Car_Black_Box.X/car_black_box_def.c:
      +                           210:     return menu_pos;
  3752  07DB  1283               	bcf	3,5	;RP0=0, select bank0
  3753  07DC  1303               	bcf	3,6	;RP1=0, select bank0
  3754  07DD  0851               	movf	login_menu@menu_pos,w
  3755  07DE                     l339:
  3756  07DE  0008               	return
  3757  07DF                     __end_of_login_menu:
  3758                           
  3759                           	psect	text6
  3760  02E3                     __ptext6:	
  3761 ;; *************** function _login *****************
  3762 ;; Defined at:
  3763 ;;		line 94 in file "C:/Users/Shreesh Kulkarni/OneDrive/Desktop/Shreesh/Car_Black_Box.X/car_black_box_def.c"
  3764 ;; Parameters:    Size  Location     Type
  3765 ;;  key             1    wreg     unsigned char 
  3766 ;;  reset_flag      1    6[BANK0 ] unsigned char 
  3767 ;; Auto vars:     Size  Location     Type
  3768 ;;  key             1   10[BANK0 ] unsigned char 
  3769 ;;  j               2   11[BANK0 ] int 
  3770 ;; Return value:  Size  Location     Type
  3771 ;;                  1    wreg      unsigned char 
  3772 ;; Registers used:
  3773 ;;		wreg, fsr0l, fsr0h, status,2, status,0, btemp+1, pclath, cstack
  3774 ;; Tracked objects:
  3775 ;;		On entry : 0/0
  3776 ;;		On exit  : 0/0
  3777 ;;		Unchanged: 0/0
  3778 ;; Data sizes:     COMMON   BANK0   BANK1   BANK3   BANK2
  3779 ;;      Params:         0       1       0       0       0
  3780 ;;      Locals:         0       3       0       0       0
  3781 ;;      Temps:          0       3       0       0       0
  3782 ;;      Totals:         0       7       0       0       0
  3783 ;;Total ram usage:        7 bytes
  3784 ;; Hardware stack levels used: 1
  3785 ;; Hardware stack levels required when called: 3
  3786 ;; This function calls:
  3787 ;;		___awdiv
  3788 ;;		___awmod
  3789 ;;		_clcd_print
  3790 ;;		_clcd_putch
  3791 ;;		_clcd_write
  3792 ;;		_clear_screen
  3793 ;;		_eeprom_read
  3794 ;;		_strncmp
  3795 ;; This function is called by:
  3796 ;;		_main
  3797 ;; This function uses a non-reentrant model
  3798 ;;
  3799                           
  3800  02E3                     _login:	
  3801                           ;psect for function _login
  3802                           
  3803                           
  3804                           ;incstack = 0
  3805                           ; Regs used in _login: [wreg-fsr0h+status,2+status,0+btemp+1+pclath+cstack]
  3806                           ;login@key stored from wreg
  3807  02E3  1283               	bcf	3,5	;RP0=0, select bank0
  3808  02E4  1303               	bcf	3,6	;RP1=0, select bank0
  3809  02E5  00AA               	movwf	login@key
  3810  02E6                     l3328:
  3811                           
  3812                           ;C:/Users/Shreesh Kulkarni/OneDrive/Desktop/Shreesh/Car_Black_Box.X/car_black_box_def.c:
      +                           96:     static char npassword[4];;C:/Users/Shreesh Kulkarni/OneDrive/Desktop/Shreesh/Ca
      +                          r_Black_Box.X/car_black_box_def.c: 97:     static char spassword[4];;C:/Users/Shreesh Ku
      +                          lkarni/OneDrive/Desktop/Shreesh/Car_Black_Box.X/car_black_box_def.c: 98:     static unsi
      +                          gned char attempt_rem;;C:/Users/Shreesh Kulkarni/OneDrive/Desktop/Shreesh/Car_Black_Box.
      +                          X/car_black_box_def.c: 99:     static unsigned char i;;C:/Users/Shreesh Kulkarni/OneDriv
      +                          e/Desktop/Shreesh/Car_Black_Box.X/car_black_box_def.c: 100:     if(reset_flag==0x10)
  3813  02E6  3010               	movlw	16
  3814  02E7  0626               	xorwf	login@reset_flag,w
  3815  02E8  1D03               	btfss	3,2
  3816  02E9  2AEB               	goto	u2491
  3817  02EA  2AEC               	goto	u2490
  3818  02EB                     u2491:
  3819  02EB  2AFD               	goto	l3344
  3820  02EC                     u2490:
  3821  02EC                     l3330:
  3822                           
  3823                           ;C:/Users/Shreesh Kulkarni/OneDrive/Desktop/Shreesh/Car_Black_Box.X/car_black_box_def.c:
      +                           101:     {;C:/Users/Shreesh Kulkarni/OneDrive/Desktop/Shreesh/Car_Black_Box.X/car_black
      +                          _box_def.c: 102:         return_time=5;
  3824  02EC  3005               	movlw	5
  3825  02ED  00A7               	movwf	??_login
  3826  02EE  0827               	movf	??_login,w
  3827  02EF  00D5               	movwf	_return_time
  3828                           
  3829                           ;C:/Users/Shreesh Kulkarni/OneDrive/Desktop/Shreesh/Car_Black_Box.X/car_black_box_def.c:
      +                           103:         attempt_rem='3';
  3830  02F0  3033               	movlw	51
  3831  02F1  00A7               	movwf	??_login
  3832  02F2  0827               	movf	??_login,w
  3833  02F3  00D3               	movwf	login@attempt_rem
  3834  02F4                     l3332:
  3835                           
  3836                           ;C:/Users/Shreesh Kulkarni/OneDrive/Desktop/Shreesh/Car_Black_Box.X/car_black_box_def.c:
      +                           104:         i=0;
  3837  02F4  01D2               	clrf	login@i
  3838  02F5                     l3334:
  3839                           
  3840                           ;C:/Users/Shreesh Kulkarni/OneDrive/Desktop/Shreesh/Car_Black_Box.X/car_black_box_def.c:
      +                           105:         npassword[0]='\0';
  3841  02F5  01E1               	clrf	login@npassword
  3842  02F6                     l3336:
  3843                           
  3844                           ;C:/Users/Shreesh Kulkarni/OneDrive/Desktop/Shreesh/Car_Black_Box.X/car_black_box_def.c:
      +                           106:         npassword[1]='\0';
  3845  02F6  01E2               	clrf	login@npassword+1
  3846  02F7                     l3338:
  3847                           
  3848                           ;C:/Users/Shreesh Kulkarni/OneDrive/Desktop/Shreesh/Car_Black_Box.X/car_black_box_def.c:
      +                           107:         npassword[2]='\0';
  3849  02F7  01E3               	clrf	login@npassword+2
  3850  02F8                     l3340:
  3851                           
  3852                           ;C:/Users/Shreesh Kulkarni/OneDrive/Desktop/Shreesh/Car_Black_Box.X/car_black_box_def.c:
      +                           108:         npassword[3]='\0';
  3853  02F8  01E4               	clrf	login@npassword+3
  3854  02F9                     l3342:
  3855                           
  3856                           ;C:/Users/Shreesh Kulkarni/OneDrive/Desktop/Shreesh/Car_Black_Box.X/car_black_box_def.c:
      +                           109:         key=0x3F;
  3857  02F9  303F               	movlw	63
  3858  02FA  00A7               	movwf	??_login
  3859  02FB  0827               	movf	??_login,w
  3860  02FC  00AA               	movwf	login@key
  3861  02FD                     l3344:
  3862                           
  3863                           ;C:/Users/Shreesh Kulkarni/OneDrive/Desktop/Shreesh/Car_Black_Box.X/car_black_box_def.c:
      +                           112:     if(return_time==0){
  3864  02FD  0855               	movf	_return_time,w
  3865  02FE  1D03               	btfss	3,2
  3866  02FF  2B01               	goto	u2501
  3867  0300  2B02               	goto	u2500
  3868  0301                     u2501:
  3869  0301  2B04               	goto	l3350
  3870  0302                     u2500:
  3871  0302                     l3346:
  3872                           
  3873                           ;C:/Users/Shreesh Kulkarni/OneDrive/Desktop/Shreesh/Car_Black_Box.X/car_black_box_def.c:
      +                           113:         return 0x02;
  3874  0302  3002               	movlw	2
  3875  0303  2C81               	goto	l314
  3876  0304                     l3350:
  3877                           
  3878                           ;C:/Users/Shreesh Kulkarni/OneDrive/Desktop/Shreesh/Car_Black_Box.X/car_black_box_def.c:
      +                           115:     if(key == 0x37 && i < 4)
  3879  0304  3037               	movlw	55
  3880  0305  062A               	xorwf	login@key,w
  3881  0306  1D03               	btfss	3,2
  3882  0307  2B09               	goto	u2511
  3883  0308  2B0A               	goto	u2510
  3884  0309                     u2511:
  3885  0309  2B2E               	goto	l3362
  3886  030A                     u2510:
  3887  030A                     l3352:
  3888  030A  3004               	movlw	4
  3889  030B  0252               	subwf	login@i,w
  3890  030C  1803               	skipnc
  3891  030D  2B0F               	goto	u2521
  3892  030E  2B10               	goto	u2520
  3893  030F                     u2521:
  3894  030F  2B2E               	goto	l3362
  3895  0310                     u2520:
  3896  0310                     l3354:
  3897                           
  3898                           ;C:/Users/Shreesh Kulkarni/OneDrive/Desktop/Shreesh/Car_Black_Box.X/car_black_box_def.c:
      +                           116:     {;C:/Users/Shreesh Kulkarni/OneDrive/Desktop/Shreesh/Car_Black_Box.X/car_black
      +                          _box_def.c: 117:         npassword[i]='4';
  3899  0310  3034               	movlw	52
  3900  0311  00A7               	movwf	??_login
  3901  0312  0852               	movf	login@i,w
  3902  0313  3E61               	addlw	(low (login@npassword| 0))& (0+255)
  3903  0314  0084               	movwf	4
  3904  0315  0827               	movf	??_login,w
  3905  0316  1383               	bcf	3,7	;select IRP bank0
  3906  0317  0080               	movwf	0
  3907  0318                     l3356:
  3908                           
  3909                           ;C:/Users/Shreesh Kulkarni/OneDrive/Desktop/Shreesh/Car_Black_Box.X/car_black_box_def.c:
      +                           118:         clcd_putch('*',(0xC0 + 6+i));
  3910  0318  0852               	movf	login@i,w
  3911  0319  3EC6               	addlw	198
  3912  031A  00A7               	movwf	??_login
  3913  031B  0827               	movf	??_login,w
  3914  031C  00A4               	movwf	clcd_putch@addr
  3915  031D  302A               	movlw	42
  3916  031E  120A  158A  218D  120A  118A  	fcall	_clcd_putch
  3917  0323                     l3358:
  3918                           
  3919                           ;C:/Users/Shreesh Kulkarni/OneDrive/Desktop/Shreesh/Car_Black_Box.X/car_black_box_def.c:
      +                           119:         i++;
  3920  0323  3001               	movlw	1
  3921  0324  1283               	bcf	3,5	;RP0=0, select bank0
  3922  0325  1303               	bcf	3,6	;RP1=0, select bank0
  3923  0326  00A7               	movwf	??_login
  3924  0327  0827               	movf	??_login,w
  3925  0328  07D2               	addwf	login@i,f
  3926  0329                     l3360:
  3927                           
  3928                           ;C:/Users/Shreesh Kulkarni/OneDrive/Desktop/Shreesh/Car_Black_Box.X/car_black_box_def.c:
      +                           120:         return_time=5;
  3929  0329  3005               	movlw	5
  3930  032A  00A7               	movwf	??_login
  3931  032B  0827               	movf	??_login,w
  3932  032C  00D5               	movwf	_return_time
  3933                           
  3934                           ;C:/Users/Shreesh Kulkarni/OneDrive/Desktop/Shreesh/Car_Black_Box.X/car_black_box_def.c:
      +                           121:     }
  3935  032D  2B4E               	goto	l3374
  3936  032E                     l3362:
  3937  032E  302F               	movlw	47
  3938  032F  062A               	xorwf	login@key,w
  3939  0330  1D03               	btfss	3,2
  3940  0331  2B33               	goto	u2531
  3941  0332  2B34               	goto	u2530
  3942  0333                     u2531:
  3943  0333  2B4E               	goto	l3374
  3944  0334                     u2530:
  3945  0334                     l3364:
  3946  0334  3004               	movlw	4
  3947  0335  0252               	subwf	login@i,w
  3948  0336  1803               	skipnc
  3949  0337  2B39               	goto	u2541
  3950  0338  2B3A               	goto	u2540
  3951  0339                     u2541:
  3952  0339  2B4E               	goto	l3374
  3953  033A                     u2540:
  3954  033A                     l3366:
  3955                           
  3956                           ;C:/Users/Shreesh Kulkarni/OneDrive/Desktop/Shreesh/Car_Black_Box.X/car_black_box_def.c:
      +                           123:     {;C:/Users/Shreesh Kulkarni/OneDrive/Desktop/Shreesh/Car_Black_Box.X/car_black
      +                          _box_def.c: 124:         npassword[i]='2';
  3957  033A  3032               	movlw	50
  3958  033B  00A7               	movwf	??_login
  3959  033C  0852               	movf	login@i,w
  3960  033D  3E61               	addlw	(low (login@npassword| 0))& (0+255)
  3961  033E  0084               	movwf	4
  3962  033F  0827               	movf	??_login,w
  3963  0340  1383               	bcf	3,7	;select IRP bank0
  3964  0341  0080               	movwf	0
  3965  0342                     l3368:
  3966                           
  3967                           ;C:/Users/Shreesh Kulkarni/OneDrive/Desktop/Shreesh/Car_Black_Box.X/car_black_box_def.c:
      +                           125:         clcd_putch('*',(0xC0 + 6+i));
  3968  0342  0852               	movf	login@i,w
  3969  0343  3EC6               	addlw	198
  3970  0344  00A7               	movwf	??_login
  3971  0345  0827               	movf	??_login,w
  3972  0346  00A4               	movwf	clcd_putch@addr
  3973  0347  302A               	movlw	42
  3974  0348  120A  158A  218D  120A  118A  	fcall	_clcd_putch
  3975  034D  2B23               	goto	l3358
  3976  034E                     l3374:
  3977                           
  3978                           ;C:/Users/Shreesh Kulkarni/OneDrive/Desktop/Shreesh/Car_Black_Box.X/car_black_box_def.c:
      +                           130:     if (i==4){
  3979  034E  3004               	movlw	4
  3980  034F  0652               	xorwf	login@i,w
  3981  0350  1D03               	btfss	3,2
  3982  0351  2B53               	goto	u2551
  3983  0352  2B54               	goto	u2550
  3984  0353                     u2551:
  3985  0353  2C80               	goto	l3436
  3986  0354                     u2550:
  3987  0354                     l3376:
  3988                           
  3989                           ;C:/Users/Shreesh Kulkarni/OneDrive/Desktop/Shreesh/Car_Black_Box.X/car_black_box_def.c:
      +                           132:         for(int j=0;j<4;j++)
  3990  0354  01AB               	clrf	login@j
  3991  0355  01AC               	clrf	login@j+1
  3992  0356                     l3382:
  3993                           
  3994                           ;C:/Users/Shreesh Kulkarni/OneDrive/Desktop/Shreesh/Car_Black_Box.X/car_black_box_def.c:
      +                           133:         {;C:/Users/Shreesh Kulkarni/OneDrive/Desktop/Shreesh/Car_Black_Box.X/car_b
      +                          lack_box_def.c: 134:             spassword[j]=eeprom_read(j);
  3995  0356  1283               	bcf	3,5	;RP0=0, select bank0
  3996  0357  1303               	bcf	3,6	;RP1=0, select bank0
  3997  0358  082B               	movf	login@j,w
  3998  0359  120A  158A  21B7  120A  118A  	fcall	_eeprom_read
  3999  035E  1283               	bcf	3,5	;RP0=0, select bank0
  4000  035F  1303               	bcf	3,6	;RP1=0, select bank0
  4001  0360  00A7               	movwf	??_login
  4002  0361  082B               	movf	login@j,w
  4003  0362  3E5D               	addlw	(low (login@spassword| 0))& (0+255)
  4004  0363  0084               	movwf	4
  4005  0364  0827               	movf	??_login,w
  4006  0365  1383               	bcf	3,7	;select IRP bank0
  4007  0366  0080               	movwf	0
  4008  0367                     l3384:
  4009                           
  4010                           ;C:/Users/Shreesh Kulkarni/OneDrive/Desktop/Shreesh/Car_Black_Box.X/car_black_box_def.c:
      +                           135:         }
  4011  0367  3001               	movlw	1
  4012  0368  07AB               	addwf	login@j,f
  4013  0369  1803               	skipnc
  4014  036A  0AAC               	incf	login@j+1,f
  4015  036B  3000               	movlw	0
  4016  036C  07AC               	addwf	login@j+1,f
  4017  036D                     l3386:
  4018  036D  082C               	movf	login@j+1,w
  4019  036E  3A80               	xorlw	128
  4020  036F  00FF               	movwf	btemp+1
  4021  0370  3080               	movlw	128
  4022  0371  027F               	subwf	btemp+1,w
  4023  0372  1D03               	skipz
  4024  0373  2B76               	goto	u2565
  4025  0374  3004               	movlw	4
  4026  0375  022B               	subwf	login@j,w
  4027  0376                     u2565:
  4028  0376  1C03               	skipc
  4029  0377  2B79               	goto	u2561
  4030  0378  2B7A               	goto	u2560
  4031  0379                     u2561:
  4032  0379  2B56               	goto	l3382
  4033  037A                     u2560:
  4034  037A                     l3388:
  4035                           
  4036                           ;C:/Users/Shreesh Kulkarni/OneDrive/Desktop/Shreesh/Car_Black_Box.X/car_black_box_def.c:
      +                           136:         if(strncmp(spassword,npassword,4)==0)
  4037  037A  3061               	movlw	(low (login@npassword| 0))& (0+255)
  4038  037B  1283               	bcf	3,5	;RP0=0, select bank0
  4039  037C  1303               	bcf	3,6	;RP1=0, select bank0
  4040  037D  00A7               	movwf	??_login
  4041  037E  0827               	movf	??_login,w
  4042  037F  00F2               	movwf	strncmp@s2
  4043  0380  3004               	movlw	4
  4044  0381  00F3               	movwf	strncmp@len
  4045  0382  3000               	movlw	0
  4046  0383  00F4               	movwf	strncmp@len+1
  4047  0384  305D               	movlw	(low (login@spassword| 0))& (0+255)
  4048  0385  120A  158A  23D3  120A  118A  	fcall	_strncmp
  4049  038A  0872               	movf	?_strncmp,w
  4050  038B  0473               	iorwf	?_strncmp+1,w
  4051  038C  1D03               	btfss	3,2
  4052  038D  2B8F               	goto	u2571
  4053  038E  2B90               	goto	u2570
  4054  038F                     u2571:
  4055  038F  2B92               	goto	l3396
  4056  0390                     u2570:
  4057  0390                     l3390:
  4058                           
  4059                           ;C:/Users/Shreesh Kulkarni/OneDrive/Desktop/Shreesh/Car_Black_Box.X/car_black_box_def.c:
      +                           137:         {;C:/Users/Shreesh Kulkarni/OneDrive/Desktop/Shreesh/Car_Black_Box.X/car_b
      +                          lack_box_def.c: 139:             return 0x11;
  4060  0390  3011               	movlw	17
  4061  0391  2C81               	goto	l314
  4062  0392                     l3396:
  4063                           
  4064                           ;C:/Users/Shreesh Kulkarni/OneDrive/Desktop/Shreesh/Car_Black_Box.X/car_black_box_def.c:
      +                           144:         {;C:/Users/Shreesh Kulkarni/OneDrive/Desktop/Shreesh/Car_Black_Box.X/car_b
      +                          lack_box_def.c: 145:             attempt_rem--;
  4065  0392  3001               	movlw	1
  4066  0393  1283               	bcf	3,5	;RP0=0, select bank0
  4067  0394  1303               	bcf	3,6	;RP1=0, select bank0
  4068  0395  02D3               	subwf	login@attempt_rem,f
  4069                           
  4070                           ;C:/Users/Shreesh Kulkarni/OneDrive/Desktop/Shreesh/Car_Black_Box.X/car_black_box_def.c:
      +                           146:             if(attempt_rem=='0'){
  4071  0396  3030               	movlw	48
  4072  0397  0653               	xorwf	login@attempt_rem,w
  4073  0398  1D03               	btfss	3,2
  4074  0399  2B9B               	goto	u2581
  4075  039A  2B9C               	goto	u2580
  4076  039B                     u2581:
  4077  039B  2C13               	goto	l3414
  4078  039C                     u2580:
  4079  039C                     l3398:
  4080                           
  4081                           ;C:/Users/Shreesh Kulkarni/OneDrive/Desktop/Shreesh/Car_Black_Box.X/car_black_box_def.c:
      +                           148:                 clcd_write(0x0C, 0);
  4082  039C  01F2               	clrf	clcd_write@mode
  4083  039D  300C               	movlw	12
  4084  039E  120A  118A  27DF  120A  118A  	fcall	_clcd_write
  4085  03A3                     l3400:
  4086                           
  4087                           ;C:/Users/Shreesh Kulkarni/OneDrive/Desktop/Shreesh/Car_Black_Box.X/car_black_box_def.c:
      +                           149:                 _delay((unsigned long)((100)*(20000000/4000000.0)));
  4088  03A3  30A5               	movlw	165
  4089  03A4  1283               	bcf	3,5	;RP0=0, select bank0
  4090  03A5  1303               	bcf	3,6	;RP1=0, select bank0
  4091  03A6  00A7               	movwf	??_login
  4092  03A7                     u3097:
  4093  03A7  0BA7               	decfsz	??_login,f
  4094  03A8  2BA7               	goto	u3097
  4095  03A9  2BAA               	nop2
  4096  03AA                     l3402:
  4097                           
  4098                           ;C:/Users/Shreesh Kulkarni/OneDrive/Desktop/Shreesh/Car_Black_Box.X/car_black_box_def.c:
      +                           150:                 clcd_print("You are Blocked",(0x80 + 0));
  4099  03AA  3056               	movlw	low (STR_16| (0+32768))
  4100  03AB  00F6               	movwf	clcd_print@str
  4101  03AC  3088               	movlw	high (STR_16| (0+32768))
  4102  03AD  00F7               	movwf	clcd_print@str+1
  4103  03AE  3080               	movlw	128
  4104  03AF  1283               	bcf	3,5	;RP0=0, select bank0
  4105  03B0  1303               	bcf	3,6	;RP1=0, select bank0
  4106  03B1  00A7               	movwf	??_login
  4107  03B2  0827               	movf	??_login,w
  4108  03B3  00F8               	movwf	clcd_print@addr
  4109  03B4  120A  158A  2300  120A  118A  	fcall	_clcd_print
  4110  03B9                     l3404:
  4111                           
  4112                           ;C:/Users/Shreesh Kulkarni/OneDrive/Desktop/Shreesh/Car_Black_Box.X/car_black_box_def.c:
      +                           151:                 clcd_print("Wait..for 60sec",(0xC0 + 0));
  4113  03B9  3046               	movlw	low (STR_17| (0+32768))
  4114  03BA  00F6               	movwf	clcd_print@str
  4115  03BB  3088               	movlw	high (STR_17| (0+32768))
  4116  03BC  00F7               	movwf	clcd_print@str+1
  4117  03BD  30C0               	movlw	192
  4118  03BE  1283               	bcf	3,5	;RP0=0, select bank0
  4119  03BF  1303               	bcf	3,6	;RP1=0, select bank0
  4120  03C0  00A7               	movwf	??_login
  4121  03C1  0827               	movf	??_login,w
  4122  03C2  00F8               	movwf	clcd_print@addr
  4123  03C3  120A  158A  2300  120A  118A  	fcall	_clcd_print
  4124  03C8                     l3406:
  4125                           
  4126                           ;C:/Users/Shreesh Kulkarni/OneDrive/Desktop/Shreesh/Car_Black_Box.X/car_black_box_def.c:
      +                           152:                 sec=60;
  4127  03C8  303C               	movlw	60
  4128  03C9  1283               	bcf	3,5	;RP0=0, select bank0
  4129  03CA  1303               	bcf	3,6	;RP1=0, select bank0
  4130  03CB  00A7               	movwf	??_login
  4131  03CC  0827               	movf	??_login,w
  4132  03CD  00D4               	movwf	_sec
  4133                           
  4134                           ;C:/Users/Shreesh Kulkarni/OneDrive/Desktop/Shreesh/Car_Black_Box.X/car_black_box_def.c:
      +                           153:                 while(sec!=0){
  4135  03CE  2C07               	goto	l3410
  4136  03CF                     l3408:
  4137                           
  4138                           ;C:/Users/Shreesh Kulkarni/OneDrive/Desktop/Shreesh/Car_Black_Box.X/car_black_box_def.c:
      +                           154:                     clcd_putch(sec/10+'0',(0xC0 + 10));
  4139  03CF  30CA               	movlw	202
  4140  03D0  00A7               	movwf	??_login
  4141  03D1  0827               	movf	??_login,w
  4142  03D2  00A4               	movwf	clcd_putch@addr
  4143  03D3  300A               	movlw	10
  4144  03D4  00F2               	movwf	___awdiv@divisor
  4145  03D5  3000               	movlw	0
  4146  03D6  00F3               	movwf	___awdiv@divisor+1
  4147  03D7  0854               	movf	_sec,w
  4148  03D8  00A8               	movwf	??_login+1
  4149  03D9  01A9               	clrf	??_login+2
  4150  03DA  0828               	movf	??_login+1,w
  4151  03DB  00F4               	movwf	___awdiv@dividend
  4152  03DC  0829               	movf	??_login+2,w
  4153  03DD  00F5               	movwf	___awdiv@dividend+1
  4154  03DE  120A  158A  2797  120A  118A  	fcall	___awdiv
  4155  03E3  0872               	movf	?___awdiv,w
  4156  03E4  3E30               	addlw	48
  4157  03E5  120A  158A  218D  120A  118A  	fcall	_clcd_putch
  4158                           
  4159                           ;C:/Users/Shreesh Kulkarni/OneDrive/Desktop/Shreesh/Car_Black_Box.X/car_black_box_def.c:
      +                           155:                     clcd_putch(sec%10+'0',(0xC0 + 11));
  4160  03EA  30CB               	movlw	203
  4161  03EB  1283               	bcf	3,5	;RP0=0, select bank0
  4162  03EC  1303               	bcf	3,6	;RP1=0, select bank0
  4163  03ED  00A7               	movwf	??_login
  4164  03EE  0827               	movf	??_login,w
  4165  03EF  00A4               	movwf	clcd_putch@addr
  4166  03F0  300A               	movlw	10
  4167  03F1  00F2               	movwf	___awmod@divisor
  4168  03F2  3000               	movlw	0
  4169  03F3  00F3               	movwf	___awmod@divisor+1
  4170  03F4  0854               	movf	_sec,w
  4171  03F5  00A8               	movwf	??_login+1
  4172  03F6  01A9               	clrf	??_login+2
  4173  03F7  0828               	movf	??_login+1,w
  4174  03F8  00F4               	movwf	___awmod@dividend
  4175  03F9  0829               	movf	??_login+2,w
  4176  03FA  00F5               	movwf	___awmod@dividend+1
  4177  03FB  120A  158A  254C  120A  118A  	fcall	___awmod
  4178  0400  0872               	movf	?___awmod,w
  4179  0401  3E30               	addlw	48
  4180  0402  120A  158A  218D  120A  118A  	fcall	_clcd_putch
  4181  0407                     l3410:
  4182                           
  4183                           ;C:/Users/Shreesh Kulkarni/OneDrive/Desktop/Shreesh/Car_Black_Box.X/car_black_box_def.c:
      +                           153:                 while(sec!=0){
  4184  0407  1283               	bcf	3,5	;RP0=0, select bank0
  4185  0408  1303               	bcf	3,6	;RP1=0, select bank0
  4186  0409  0854               	movf	_sec,w
  4187  040A  1D03               	btfss	3,2
  4188  040B  2C0D               	goto	u2591
  4189  040C  2C0E               	goto	u2590
  4190  040D                     u2591:
  4191  040D  2BCF               	goto	l3408
  4192  040E                     u2590:
  4193  040E                     l3412:
  4194                           
  4195                           ;C:/Users/Shreesh Kulkarni/OneDrive/Desktop/Shreesh/Car_Black_Box.X/car_black_box_def.c:
      +                           158:                 attempt_rem='3';
  4196  040E  3033               	movlw	51
  4197  040F  00A7               	movwf	??_login
  4198  0410  0827               	movf	??_login,w
  4199  0411  00D3               	movwf	login@attempt_rem
  4200                           
  4201                           ;C:/Users/Shreesh Kulkarni/OneDrive/Desktop/Shreesh/Car_Black_Box.X/car_black_box_def.c:
      +                           159:             }
  4202  0412  2C50               	goto	l3422
  4203  0413                     l3414:
  4204                           
  4205                           ;C:/Users/Shreesh Kulkarni/OneDrive/Desktop/Shreesh/Car_Black_Box.X/car_black_box_def.c:
      +                           161:                 clear_screen();
  4206  0413  120A  158A  2141  120A  118A  	fcall	_clear_screen
  4207  0418                     l3416:
  4208                           
  4209                           ;C:/Users/Shreesh Kulkarni/OneDrive/Desktop/Shreesh/Car_Black_Box.X/car_black_box_def.c:
      +                           162:                 clcd_print("Wrong Password",(0x80 + 0));
  4210  0418  3096               	movlw	low (STR_18| (0+32768))
  4211  0419  00F6               	movwf	clcd_print@str
  4212  041A  3088               	movlw	high (STR_18| (0+32768))
  4213  041B  00F7               	movwf	clcd_print@str+1
  4214  041C  3080               	movlw	128
  4215  041D  1283               	bcf	3,5	;RP0=0, select bank0
  4216  041E  1303               	bcf	3,6	;RP1=0, select bank0
  4217  041F  00A7               	movwf	??_login
  4218  0420  0827               	movf	??_login,w
  4219  0421  00F8               	movwf	clcd_print@addr
  4220  0422  120A  158A  2300  120A  118A  	fcall	_clcd_print
  4221  0427                     l3418:
  4222                           
  4223                           ;C:/Users/Shreesh Kulkarni/OneDrive/Desktop/Shreesh/Car_Black_Box.X/car_black_box_def.c:
      +                           163:                 clcd_putch(attempt_rem,(0xC0 + 0));
  4224  0427  30C0               	movlw	192
  4225  0428  1283               	bcf	3,5	;RP0=0, select bank0
  4226  0429  1303               	bcf	3,6	;RP1=0, select bank0
  4227  042A  00A7               	movwf	??_login
  4228  042B  0827               	movf	??_login,w
  4229  042C  00A4               	movwf	clcd_putch@addr
  4230  042D  0853               	movf	login@attempt_rem,w
  4231  042E  120A  158A  218D  120A  118A  	fcall	_clcd_putch
  4232                           
  4233                           ;C:/Users/Shreesh Kulkarni/OneDrive/Desktop/Shreesh/Car_Black_Box.X/car_black_box_def.c:
      +                           164:                 clcd_print("Attempts remain",(0xC0 + 1));
  4234  0433  3076               	movlw	low (STR_19| (0+32768))
  4235  0434  00F6               	movwf	clcd_print@str
  4236  0435  3088               	movlw	high (STR_19| (0+32768))
  4237  0436  00F7               	movwf	clcd_print@str+1
  4238  0437  30C1               	movlw	193
  4239  0438  1283               	bcf	3,5	;RP0=0, select bank0
  4240  0439  1303               	bcf	3,6	;RP1=0, select bank0
  4241  043A  00A7               	movwf	??_login
  4242  043B  0827               	movf	??_login,w
  4243  043C  00F8               	movwf	clcd_print@addr
  4244  043D  120A  158A  2300  120A  118A  	fcall	_clcd_print
  4245  0442                     l3420:
  4246                           
  4247                           ;C:/Users/Shreesh Kulkarni/OneDrive/Desktop/Shreesh/Car_Black_Box.X/car_black_box_def.c:
      +                           165:                 _delay((unsigned long)((3000)*(20000000/4000.0)));
  4248  0442  304D               	movlw	77
  4249  0443  1283               	bcf	3,5	;RP0=0, select bank0
  4250  0444  1303               	bcf	3,6	;RP1=0, select bank0
  4251  0445  00A9               	movwf	??_login+2
  4252  0446  3019               	movlw	25
  4253  0447  00A8               	movwf	??_login+1
  4254  0448  304F               	movlw	79
  4255  0449  00A7               	movwf	??_login
  4256  044A                     u3107:
  4257  044A  0BA7               	decfsz	??_login,f
  4258  044B  2C4A               	goto	u3107
  4259  044C  0BA8               	decfsz	??_login+1,f
  4260  044D  2C4A               	goto	u3107
  4261  044E  0BA9               	decfsz	??_login+2,f
  4262  044F  2C4A               	goto	u3107
  4263  0450                     l3422:
  4264                           
  4265                           ;C:/Users/Shreesh Kulkarni/OneDrive/Desktop/Shreesh/Car_Black_Box.X/car_black_box_def.c:
      +                           168:             clear_screen();
  4266  0450  120A  158A  2141  120A  118A  	fcall	_clear_screen
  4267  0455                     l3424:
  4268                           
  4269                           ;C:/Users/Shreesh Kulkarni/OneDrive/Desktop/Shreesh/Car_Black_Box.X/car_black_box_def.c:
      +                           169:             clcd_print(" ENTER PASSWORD",(0x80 + 0));
  4270  0455  3086               	movlw	low (STR_8| (0+32768))
  4271  0456  00F6               	movwf	clcd_print@str
  4272  0457  3088               	movlw	high (STR_8| (0+32768))
  4273  0458  00F7               	movwf	clcd_print@str+1
  4274  0459  3080               	movlw	128
  4275  045A  1283               	bcf	3,5	;RP0=0, select bank0
  4276  045B  1303               	bcf	3,6	;RP1=0, select bank0
  4277  045C  00A7               	movwf	??_login
  4278  045D  0827               	movf	??_login,w
  4279  045E  00F8               	movwf	clcd_print@addr
  4280  045F  120A  158A  2300  120A  118A  	fcall	_clcd_print
  4281  0464                     l3426:
  4282                           
  4283                           ;C:/Users/Shreesh Kulkarni/OneDrive/Desktop/Shreesh/Car_Black_Box.X/car_black_box_def.c:
      +                           170:             clcd_write((0xC0 + 6),0);
  4284  0464  01F2               	clrf	clcd_write@mode
  4285  0465  30C6               	movlw	198
  4286  0466  120A  118A  27DF  120A  118A  	fcall	_clcd_write
  4287  046B                     l3428:
  4288                           
  4289                           ;C:/Users/Shreesh Kulkarni/OneDrive/Desktop/Shreesh/Car_Black_Box.X/car_black_box_def.c:
      +                           171:             clcd_write(0x0F, 0);
  4290  046B  01F2               	clrf	clcd_write@mode
  4291  046C  300F               	movlw	15
  4292  046D  120A  118A  27DF  120A  118A  	fcall	_clcd_write
  4293  0472                     l3430:
  4294                           
  4295                           ;C:/Users/Shreesh Kulkarni/OneDrive/Desktop/Shreesh/Car_Black_Box.X/car_black_box_def.c:
      +                           172:             _delay((unsigned long)((100)*(20000000/4000000.0)));
  4296  0472  30A5               	movlw	165
  4297  0473  1283               	bcf	3,5	;RP0=0, select bank0
  4298  0474  1303               	bcf	3,6	;RP1=0, select bank0
  4299  0475  00A7               	movwf	??_login
  4300  0476                     u3117:
  4301  0476  0BA7               	decfsz	??_login,f
  4302  0477  2C76               	goto	u3117
  4303  0478  2C79               	nop2
  4304  0479                     l3432:
  4305                           
  4306                           ;C:/Users/Shreesh Kulkarni/OneDrive/Desktop/Shreesh/Car_Black_Box.X/car_black_box_def.c:
      +                           173:             i=0;
  4307  0479  1283               	bcf	3,5	;RP0=0, select bank0
  4308  047A  1303               	bcf	3,6	;RP1=0, select bank0
  4309  047B  01D2               	clrf	login@i
  4310  047C                     l3434:
  4311                           
  4312                           ;C:/Users/Shreesh Kulkarni/OneDrive/Desktop/Shreesh/Car_Black_Box.X/car_black_box_def.c:
      +                           174:             return_time=5;
  4313  047C  3005               	movlw	5
  4314  047D  00A7               	movwf	??_login
  4315  047E  0827               	movf	??_login,w
  4316  047F  00D5               	movwf	_return_time
  4317  0480                     l3436:
  4318                           
  4319                           ;C:/Users/Shreesh Kulkarni/OneDrive/Desktop/Shreesh/Car_Black_Box.X/car_black_box_def.c:
      +                           179:     return 0x10;
  4320  0480  3010               	movlw	16
  4321  0481                     l314:
  4322  0481  0008               	return
  4323  0482                     __end_of_login:
  4324                           
  4325                           	psect	text7
  4326  09B7                     __ptext7:	
  4327 ;; *************** function _eeprom_read *****************
  4328 ;; Defined at:
  4329 ;;		line 6 in file "C:\Program Files\Microchip\xc8\v2.36\pic\sources\c90\pic\__eeread.c"
  4330 ;; Parameters:    Size  Location     Type
  4331 ;;  addr            1    wreg     unsigned char 
  4332 ;; Auto vars:     Size  Location     Type
  4333 ;;  addr            1    3[COMMON] unsigned char 
  4334 ;; Return value:  Size  Location     Type
  4335 ;;                  1    wreg      unsigned char 
  4336 ;; Registers used:
  4337 ;;		wreg, status,2, status,0
  4338 ;; Tracked objects:
  4339 ;;		On entry : 0/0
  4340 ;;		On exit  : 0/0
  4341 ;;		Unchanged: 0/0
  4342 ;; Data sizes:     COMMON   BANK0   BANK1   BANK3   BANK2
  4343 ;;      Params:         0       0       0       0       0
  4344 ;;      Locals:         1       0       0       0       0
  4345 ;;      Temps:          1       0       0       0       0
  4346 ;;      Totals:         2       0       0       0       0
  4347 ;;Total ram usage:        2 bytes
  4348 ;; Hardware stack levels used: 1
  4349 ;; Hardware stack levels required when called: 1
  4350 ;; This function calls:
  4351 ;;		Nothing
  4352 ;; This function is called by:
  4353 ;;		_login
  4354 ;;		_view_log
  4355 ;; This function uses a non-reentrant model
  4356 ;;
  4357                           
  4358  09B7                     _eeprom_read:	
  4359                           ;psect for function _eeprom_read
  4360                           
  4361                           
  4362                           ;incstack = 0
  4363                           ; Regs used in _eeprom_read: [wreg+status,2+status,0]
  4364                           ;eeprom_read@addr stored from wreg
  4365  09B7  00F3               	movwf	eeprom_read@addr
  4366  09B8                     l501:	
  4367                           ;C:\Program Files\Microchip\xc8\v2.36\pic\sources\c90\pic\__eeread.c: 6: eeprom_read(uns
      +                          igned char addr);C:\Program Files\Microchip\xc8\v2.36\pic\sources\c90\pic\__eeread.c: 7:
      +                           {;C:\Program Files\Microchip\xc8\v2.36\pic\sources\c90\pic\__eeread.c: 8:  do
  4368                           
  4369  09B8  0064               	clrwdt	;# 
  4370  09B9  1683               	bsf	3,5	;RP0=1, select bank3
  4371  09BA  1703               	bsf	3,6	;RP1=1, select bank3
  4372  09BB  188C               	btfsc	12,1	;volsfr
  4373  09BC  29BE               	goto	u1421
  4374  09BD  29BF               	goto	u1420
  4375  09BE                     u1421:
  4376  09BE  29B8               	goto	l501
  4377  09BF                     u1420:
  4378  09BF                     l2334:
  4379                           
  4380                           ;C:\Program Files\Microchip\xc8\v2.36\pic\sources\c90\pic\__eeread.c: 18:  return ( EEAD
      +                          R = addr, EECON1 &= 0x3F, EECON1bits.RD = 1, EEDATA);
  4381  09BF  0873               	movf	eeprom_read@addr,w
  4382  09C0  1283               	bcf	3,5	;RP0=0, select bank2
  4383  09C1  1703               	bsf	3,6	;RP1=1, select bank2
  4384  09C2  008D               	movwf	13	;volatile
  4385  09C3  303F               	movlw	63
  4386  09C4  00F2               	movwf	??_eeprom_read
  4387  09C5  0872               	movf	??_eeprom_read,w
  4388  09C6  1683               	bsf	3,5	;RP0=1, select bank3
  4389  09C7  1703               	bsf	3,6	;RP1=1, select bank3
  4390  09C8  058C               	andwf	12,f	;volsfr
  4391  09C9  140C               	bsf	12,0	;volsfr
  4392  09CA  1283               	bcf	3,5	;RP0=0, select bank2
  4393  09CB  1703               	bsf	3,6	;RP1=1, select bank2
  4394  09CC  080C               	movf	12,w	;volatile
  4395  09CD                     l503:
  4396  09CD  0008               	return
  4397  09CE                     __end_of_eeprom_read:
  4398                           
  4399                           	psect	text8
  4400  0EC9                     __ptext8:	
  4401 ;; *************** function _log_car_event *****************
  4402 ;; Defined at:
  4403 ;;		line 77 in file "C:/Users/Shreesh Kulkarni/OneDrive/Desktop/Shreesh/Car_Black_Box.X/car_black_box_def.c"
  4404 ;; Parameters:    Size  Location     Type
  4405 ;;  event           1    wreg     unsigned char 
  4406 ;;  speed           1    4[BANK0 ] unsigned char 
  4407 ;; Auto vars:     Size  Location     Type
  4408 ;;  event           1    8[BANK0 ] unsigned char 
  4409 ;; Return value:  Size  Location     Type
  4410 ;;                  1    wreg      void 
  4411 ;; Registers used:
  4412 ;;		wreg, fsr0l, fsr0h, status,2, status,0, btemp+1, pclath, cstack
  4413 ;; Tracked objects:
  4414 ;;		On entry : 0/0
  4415 ;;		On exit  : 0/0
  4416 ;;		Unchanged: 0/0
  4417 ;; Data sizes:     COMMON   BANK0   BANK1   BANK3   BANK2
  4418 ;;      Params:         0       1       0       0       0
  4419 ;;      Locals:         0       1       0       0       0
  4420 ;;      Temps:          0       3       0       0       0
  4421 ;;      Totals:         0       5       0       0       0
  4422 ;;Total ram usage:        5 bytes
  4423 ;; Hardware stack levels used: 1
  4424 ;; Hardware stack levels required when called: 6
  4425 ;; This function calls:
  4426 ;;		___awdiv
  4427 ;;		___awmod
  4428 ;;		_get_time
  4429 ;;		_log_event
  4430 ;;		_strncpy
  4431 ;; This function is called by:
  4432 ;;		_main
  4433 ;; This function uses a non-reentrant model
  4434 ;;
  4435                           
  4436  0EC9                     _log_car_event:	
  4437                           ;psect for function _log_car_event
  4438                           
  4439                           
  4440                           ;incstack = 0
  4441                           ; Regs used in _log_car_event: [wreg-fsr0h+status,2+status,0+btemp+1+pclath+cstack]
  4442                           ;log_car_event@event stored from wreg
  4443  0EC9  1283               	bcf	3,5	;RP0=0, select bank0
  4444  0ECA  1303               	bcf	3,6	;RP1=0, select bank0
  4445  0ECB  00A8               	movwf	log_car_event@event
  4446  0ECC                     l3312:
  4447                           
  4448                           ;C:/Users/Shreesh Kulkarni/OneDrive/Desktop/Shreesh/Car_Black_Box.X/car_black_box_def.c:
      +                           79:     get_time();
  4449  0ECC  120A  158A  25A5  120A  158A  	fcall	_get_time
  4450  0ED1                     l3314:
  4451                           
  4452                           ;C:/Users/Shreesh Kulkarni/OneDrive/Desktop/Shreesh/Car_Black_Box.X/car_black_box_def.c:
      +                           80:     strncpy(log,time,6);
  4453  0ED1  3056               	movlw	(low (_time| 0))& (0+255)
  4454  0ED2  00F2               	movwf	strncpy@from
  4455  0ED3  3000               	movlw	0
  4456  0ED4  00F3               	movwf	strncpy@from+1
  4457  0ED5  3006               	movlw	6
  4458  0ED6  00F4               	movwf	strncpy@size
  4459  0ED7  3000               	movlw	0
  4460  0ED8  00F5               	movwf	strncpy@size+1
  4461  0ED9  30A0               	movlw	(low (_log| 0))& (0+255)
  4462  0EDA  120A  158A  2457  120A  158A  	fcall	_strncpy
  4463  0EDF                     l3316:
  4464                           
  4465                           ;C:/Users/Shreesh Kulkarni/OneDrive/Desktop/Shreesh/Car_Black_Box.X/car_black_box_def.c:
      +                           81:     strncpy(&log[6],event,2);
  4466  0EDF  1283               	bcf	3,5	;RP0=0, select bank0
  4467  0EE0  1303               	bcf	3,6	;RP1=0, select bank0
  4468  0EE1  0828               	movf	log_car_event@event,w
  4469  0EE2  00A5               	movwf	??_log_car_event
  4470  0EE3  01A6               	clrf	??_log_car_event+1
  4471  0EE4  0825               	movf	??_log_car_event,w
  4472  0EE5  00F2               	movwf	strncpy@from
  4473  0EE6  0826               	movf	??_log_car_event+1,w
  4474  0EE7  00F3               	movwf	strncpy@from+1
  4475  0EE8  3002               	movlw	2
  4476  0EE9  00F4               	movwf	strncpy@size
  4477  0EEA  3000               	movlw	0
  4478  0EEB  00F5               	movwf	strncpy@size+1
  4479  0EEC  30A6               	movlw	(low ((_log| 0+6)))& (0+255)
  4480  0EED  120A  158A  2457  120A  158A  	fcall	_strncpy
  4481                           
  4482                           ;C:/Users/Shreesh Kulkarni/OneDrive/Desktop/Shreesh/Car_Black_Box.X/car_black_box_def.c:
      +                           83:     log[8]=speed/10+'0';
  4483  0EF2  300A               	movlw	10
  4484  0EF3  00F2               	movwf	___awdiv@divisor
  4485  0EF4  3000               	movlw	0
  4486  0EF5  00F3               	movwf	___awdiv@divisor+1
  4487  0EF6  1283               	bcf	3,5	;RP0=0, select bank0
  4488  0EF7  1303               	bcf	3,6	;RP1=0, select bank0
  4489  0EF8  0824               	movf	log_car_event@speed,w
  4490  0EF9  00A5               	movwf	??_log_car_event
  4491  0EFA  01A6               	clrf	??_log_car_event+1
  4492  0EFB  0825               	movf	??_log_car_event,w
  4493  0EFC  00F4               	movwf	___awdiv@dividend
  4494  0EFD  0826               	movf	??_log_car_event+1,w
  4495  0EFE  00F5               	movwf	___awdiv@dividend+1
  4496  0EFF  120A  158A  2797  120A  158A  	fcall	___awdiv
  4497  0F04  0872               	movf	?___awdiv,w
  4498  0F05  3E30               	addlw	48
  4499  0F06  1283               	bcf	3,5	;RP0=0, select bank0
  4500  0F07  1303               	bcf	3,6	;RP1=0, select bank0
  4501  0F08  00A7               	movwf	??_log_car_event+2
  4502  0F09  0827               	movf	??_log_car_event+2,w
  4503  0F0A  1683               	bsf	3,5	;RP0=1, select bank1
  4504  0F0B  1303               	bcf	3,6	;RP1=0, select bank1
  4505  0F0C  00A8               	movwf	(_log^(0+128)+8)
  4506                           
  4507                           ;C:/Users/Shreesh Kulkarni/OneDrive/Desktop/Shreesh/Car_Black_Box.X/car_black_box_def.c:
      +                           84:     log[9]=speed%10 + '0';
  4508  0F0D  300A               	movlw	10
  4509  0F0E  00F2               	movwf	___awmod@divisor
  4510  0F0F  3000               	movlw	0
  4511  0F10  00F3               	movwf	___awmod@divisor+1
  4512  0F11  1283               	bcf	3,5	;RP0=0, select bank0
  4513  0F12  1303               	bcf	3,6	;RP1=0, select bank0
  4514  0F13  0824               	movf	log_car_event@speed,w
  4515  0F14  00A5               	movwf	??_log_car_event
  4516  0F15  01A6               	clrf	??_log_car_event+1
  4517  0F16  0825               	movf	??_log_car_event,w
  4518  0F17  00F4               	movwf	___awmod@dividend
  4519  0F18  0826               	movf	??_log_car_event+1,w
  4520  0F19  00F5               	movwf	___awmod@dividend+1
  4521  0F1A  120A  158A  254C  120A  158A  	fcall	___awmod
  4522  0F1F  0872               	movf	?___awmod,w
  4523  0F20  3E30               	addlw	48
  4524  0F21  1283               	bcf	3,5	;RP0=0, select bank0
  4525  0F22  1303               	bcf	3,6	;RP1=0, select bank0
  4526  0F23  00A7               	movwf	??_log_car_event+2
  4527  0F24  0827               	movf	??_log_car_event+2,w
  4528  0F25  1683               	bsf	3,5	;RP0=1, select bank1
  4529  0F26  1303               	bcf	3,6	;RP1=0, select bank1
  4530  0F27  00A9               	movwf	(_log^(0+128)+9)
  4531  0F28                     l3318:
  4532                           
  4533                           ;C:/Users/Shreesh Kulkarni/OneDrive/Desktop/Shreesh/Car_Black_Box.X/car_black_box_def.c:
      +                           85:     log[10]='\0';
  4534  0F28  01AA               	clrf	(_log^(0+128)+10)
  4535  0F29                     l3320:
  4536                           
  4537                           ;C:/Users/Shreesh Kulkarni/OneDrive/Desktop/Shreesh/Car_Black_Box.X/car_black_box_def.c:
      +                           87:     log_event();
  4538  0F29  120A  158A  24F4  120A  158A  	fcall	_log_event
  4539  0F2E                     l298:
  4540  0F2E  0008               	return
  4541  0F2F                     __end_of_log_car_event:
  4542                           
  4543                           	psect	text9
  4544  0C57                     __ptext9:	
  4545 ;; *************** function _strncpy *****************
  4546 ;; Defined at:
  4547 ;;		line 8 in file "C:\Program Files\Microchip\xc8\v2.36\pic\sources\c90\common\strncpy.c"
  4548 ;; Parameters:    Size  Location     Type
  4549 ;;  to              1    wreg     PTR unsigned char 
  4550 ;;		 -> log(11), 
  4551 ;;  from            2    2[COMMON] PTR const unsigned char 
  4552 ;;		 -> ROM(8192), time(7), 
  4553 ;;  size            2    4[COMMON] unsigned int 
  4554 ;; Auto vars:     Size  Location     Type
  4555 ;;  to              1    0[BANK0 ] PTR unsigned char 
  4556 ;;		 -> log(11), 
  4557 ;;  cp              1    1[BANK0 ] PTR unsigned char 
  4558 ;;		 -> log(11), 
  4559 ;; Return value:  Size  Location     Type
  4560 ;;                  1    wreg      PTR unsigned char 
  4561 ;; Registers used:
  4562 ;;		wreg, fsr0l, fsr0h, status,2, status,0, btemp+1, pclath
  4563 ;; Tracked objects:
  4564 ;;		On entry : 0/0
  4565 ;;		On exit  : 0/0
  4566 ;;		Unchanged: 0/0
  4567 ;; Data sizes:     COMMON   BANK0   BANK1   BANK3   BANK2
  4568 ;;      Params:         4       0       0       0       0
  4569 ;;      Locals:         0       2       0       0       0
  4570 ;;      Temps:          3       0       0       0       0
  4571 ;;      Totals:         7       2       0       0       0
  4572 ;;Total ram usage:        9 bytes
  4573 ;; Hardware stack levels used: 2
  4574 ;; Hardware stack levels required when called: 1
  4575 ;; This function calls:
  4576 ;;		Nothing
  4577 ;; This function is called by:
  4578 ;;		_log_car_event
  4579 ;; This function uses a non-reentrant model
  4580 ;;
  4581                           
  4582  0C57                     _strncpy:	
  4583                           ;psect for function _strncpy
  4584                           
  4585                           
  4586                           ;incstack = 0
  4587                           ; Regs used in _strncpy: [wreg-fsr0h+status,2+status,0+btemp+1+pclath]
  4588                           ;strncpy@to stored from wreg
  4589  0C57  1283               	bcf	3,5	;RP0=0, select bank0
  4590  0C58  1303               	bcf	3,6	;RP1=0, select bank0
  4591  0C59  00A0               	movwf	strncpy@to
  4592  0C5A                     l2318:
  4593  0C5A  0820               	movf	strncpy@to,w
  4594  0C5B  00F6               	movwf	??_strncpy
  4595  0C5C  0876               	movf	??_strncpy,w
  4596  0C5D  00A1               	movwf	strncpy@cp
  4597  0C5E  2C83               	goto	l2326
  4598  0C5F                     l2320:
  4599  0C5F  3001               	movlw	1
  4600  0C60  02F4               	subwf	strncpy@size,f
  4601  0C61  3000               	movlw	0
  4602  0C62  1C03               	skipc
  4603  0C63  03F5               	decf	strncpy@size+1,f
  4604  0C64  02F5               	subwf	strncpy@size+1,f
  4605  0C65                     l2322:
  4606  0C65  0873               	movf	strncpy@from+1,w
  4607  0C66  00F7               	movwf	??_strncpy+1
  4608  0C67  0872               	movf	strncpy@from,w
  4609  0C68  00F6               	movwf	??_strncpy
  4610  0C69  0AF2               	incf	strncpy@from,f
  4611  0C6A  1903               	skipnz
  4612  0C6B  0AF3               	incf	strncpy@from+1,f
  4613  0C6C  0877               	movf	??_strncpy+1,w
  4614  0C6D  00FF               	movwf	btemp+1
  4615  0C6E  0876               	movf	??_strncpy,w
  4616  0C6F  0084               	movwf	4
  4617  0C70  120A  158A  2118  120A  158A  	fcall	stringtab
  4618  0C75  00F8               	movwf	??_strncpy+2
  4619  0C76  0821               	movf	strncpy@cp,w
  4620  0C77  0084               	movwf	4
  4621  0C78  3001               	movlw	1
  4622  0C79  07A1               	addwf	strncpy@cp,f
  4623  0C7A  0878               	movf	??_strncpy+2,w
  4624  0C7B  1383               	bcf	3,7	;select IRP bank0
  4625  0C7C  0080               	movwf	0
  4626  0C7D  0800               	movf	0,w
  4627  0C7E  1D03               	btfss	3,2
  4628  0C7F  2C81               	goto	u1391
  4629  0C80  2C82               	goto	u1390
  4630  0C81                     u1391:
  4631  0C81  2C83               	goto	l2326
  4632  0C82                     u1390:
  4633  0C82  2C92               	goto	l2332
  4634  0C83                     l2326:
  4635  0C83  0874               	movf	strncpy@size,w
  4636  0C84  0475               	iorwf	strncpy@size+1,w
  4637  0C85  1D03               	btfss	3,2
  4638  0C86  2C88               	goto	u1401
  4639  0C87  2C89               	goto	u1400
  4640  0C88                     u1401:
  4641  0C88  2C5F               	goto	l2320
  4642  0C89                     u1400:
  4643  0C89  2C92               	goto	l2332
  4644  0C8A                     l2328:
  4645  0C8A  0821               	movf	strncpy@cp,w
  4646  0C8B  0084               	movwf	4
  4647  0C8C  1383               	bcf	3,7	;select IRP bank0
  4648  0C8D  0180               	clrf	0
  4649  0C8E                     l2330:
  4650  0C8E  3001               	movlw	1
  4651  0C8F  00F6               	movwf	??_strncpy
  4652  0C90  0876               	movf	??_strncpy,w
  4653  0C91  07A1               	addwf	strncpy@cp,f
  4654  0C92                     l2332:
  4655  0C92  3001               	movlw	1
  4656  0C93  02F4               	subwf	strncpy@size,f
  4657  0C94  3000               	movlw	0
  4658  0C95  1C03               	skipc
  4659  0C96  03F5               	decf	strncpy@size+1,f
  4660  0C97  02F5               	subwf	strncpy@size+1,f
  4661  0C98  0A74               	incf	strncpy@size,w
  4662  0C99  1D03               	skipz
  4663  0C9A  2C9F               	goto	u1411
  4664  0C9B  0A75               	incf	strncpy@size+1,w
  4665  0C9C  1D03               	btfss	3,2
  4666  0C9D  2C9F               	goto	u1411
  4667  0C9E  2CA0               	goto	u1410
  4668  0C9F                     u1411:
  4669  0C9F  2C8A               	goto	l2328
  4670  0CA0                     u1410:
  4671  0CA0                     l1004:
  4672  0CA0  0008               	return
  4673  0CA1                     __end_of_strncpy:
  4674                           
  4675                           	psect	text10
  4676  0CF4                     __ptext10:	
  4677 ;; *************** function _log_event *****************
  4678 ;; Defined at:
  4679 ;;		line 58 in file "C:/Users/Shreesh Kulkarni/OneDrive/Desktop/Shreesh/Car_Black_Box.X/car_black_box_def.c"
  4680 ;; Parameters:    Size  Location     Type
  4681 ;;		None
  4682 ;; Auto vars:     Size  Location     Type
  4683 ;;  i               2    1[BANK0 ] int 
  4684 ;;  addr            1    0[BANK0 ] unsigned char 
  4685 ;; Return value:  Size  Location     Type
  4686 ;;                  1    wreg      void 
  4687 ;; Registers used:
  4688 ;;		wreg, fsr0l, fsr0h, status,2, status,0, btemp+1, pclath, cstack
  4689 ;; Tracked objects:
  4690 ;;		On entry : 0/0
  4691 ;;		On exit  : 0/0
  4692 ;;		Unchanged: 0/0
  4693 ;; Data sizes:     COMMON   BANK0   BANK1   BANK3   BANK2
  4694 ;;      Params:         0       0       0       0       0
  4695 ;;      Locals:         0       3       0       0       0
  4696 ;;      Temps:          2       0       0       0       0
  4697 ;;      Totals:         2       3       0       0       0
  4698 ;;Total ram usage:        5 bytes
  4699 ;; Hardware stack levels used: 1
  4700 ;; Hardware stack levels required when called: 2
  4701 ;; This function calls:
  4702 ;;		___bmul
  4703 ;;		_eeprom_write
  4704 ;; This function is called by:
  4705 ;;		_log_car_event
  4706 ;; This function uses a non-reentrant model
  4707 ;;
  4708                           
  4709  0CF4                     _log_event:	
  4710                           ;psect for function _log_event
  4711                           
  4712  0CF4                     l2298:	
  4713                           ;incstack = 0
  4714                           ; Regs used in _log_event: [wreg-fsr0h+status,2+status,0+btemp+1+pclath+cstack]
  4715                           
  4716                           
  4717                           ;C:/Users/Shreesh Kulkarni/OneDrive/Desktop/Shreesh/Car_Black_Box.X/car_black_box_def.c:
      +                           59:     unsigned char addr;;C:/Users/Shreesh Kulkarni/OneDrive/Desktop/Shreesh/Car_Blac
      +                          k_Box.X/car_black_box_def.c: 60:     pos++;
  4718  0CF4  3001               	movlw	1
  4719  0CF5  00F6               	movwf	??_log_event
  4720  0CF6  0876               	movf	??_log_event,w
  4721  0CF7  1283               	bcf	3,5	;RP0=0, select bank0
  4722  0CF8  1303               	bcf	3,6	;RP1=0, select bank0
  4723  0CF9  07EE               	addwf	_pos,f
  4724                           
  4725                           ;C:/Users/Shreesh Kulkarni/OneDrive/Desktop/Shreesh/Car_Black_Box.X/car_black_box_def.c:
      +                           61:     if (pos==10)
  4726  0CFA  300A               	movlw	10
  4727  0CFB  066E               	xorwf	_pos,w
  4728  0CFC  1D03               	btfss	3,2
  4729  0CFD  2CFF               	goto	u1361
  4730  0CFE  2D00               	goto	u1360
  4731  0CFF                     u1361:
  4732  0CFF  2D01               	goto	l2302
  4733  0D00                     u1360:
  4734  0D00                     l2300:
  4735                           
  4736                           ;C:/Users/Shreesh Kulkarni/OneDrive/Desktop/Shreesh/Car_Black_Box.X/car_black_box_def.c:
      +                           62:     {;C:/Users/Shreesh Kulkarni/OneDrive/Desktop/Shreesh/Car_Black_Box.X/car_black_
      +                          box_def.c: 63:         pos=0;
  4737  0D00  01EE               	clrf	_pos
  4738  0D01                     l2302:
  4739                           
  4740                           ;C:/Users/Shreesh Kulkarni/OneDrive/Desktop/Shreesh/Car_Black_Box.X/car_black_box_def.c:
      +                           65:     addr=pos*10+5;
  4741  0D01  300A               	movlw	10
  4742  0D02  00F6               	movwf	??_log_event
  4743  0D03  0876               	movf	??_log_event,w
  4744  0D04  00F2               	movwf	___bmul@multiplicand
  4745  0D05  086E               	movf	_pos,w
  4746  0D06  120A  158A  21A2  120A  158A  	fcall	___bmul
  4747  0D0B  3E05               	addlw	5
  4748  0D0C  00F7               	movwf	??_log_event+1
  4749  0D0D  0877               	movf	??_log_event+1,w
  4750  0D0E  1283               	bcf	3,5	;RP0=0, select bank0
  4751  0D0F  1303               	bcf	3,6	;RP1=0, select bank0
  4752  0D10  00A0               	movwf	log_event@addr
  4753  0D11                     l2304:
  4754                           
  4755                           ;C:/Users/Shreesh Kulkarni/OneDrive/Desktop/Shreesh/Car_Black_Box.X/car_black_box_def.c:
      +                           66:     for(int i=0;log[i]!='\0';i++)
  4756  0D11  01A1               	clrf	log_event@i
  4757  0D12  01A2               	clrf	log_event@i+1
  4758  0D13  2D2D               	goto	l2312
  4759  0D14                     l2306:
  4760                           
  4761                           ;C:/Users/Shreesh Kulkarni/OneDrive/Desktop/Shreesh/Car_Black_Box.X/car_black_box_def.c:
      +                           67:     {;C:/Users/Shreesh Kulkarni/OneDrive/Desktop/Shreesh/Car_Black_Box.X/car_black_
      +                          box_def.c: 68:         eeprom_write(addr,log[i]);
  4762  0D14  0821               	movf	log_event@i,w
  4763  0D15  3EA0               	addlw	(low (_log| 0))& (0+255)
  4764  0D16  0084               	movwf	4
  4765  0D17  0800               	movf	0,w
  4766  0D18  00F6               	movwf	??_log_event
  4767  0D19  0876               	movf	??_log_event,w
  4768  0D1A  00F2               	movwf	eeprom_write@value
  4769  0D1B  0820               	movf	log_event@addr,w
  4770  0D1C  120A  158A  22A6  120A  158A  	fcall	_eeprom_write
  4771  0D21                     l2308:
  4772                           
  4773                           ;C:/Users/Shreesh Kulkarni/OneDrive/Desktop/Shreesh/Car_Black_Box.X/car_black_box_def.c:
      +                           69:         addr++;
  4774  0D21  3001               	movlw	1
  4775  0D22  00F6               	movwf	??_log_event
  4776  0D23  0876               	movf	??_log_event,w
  4777  0D24  1283               	bcf	3,5	;RP0=0, select bank0
  4778  0D25  1303               	bcf	3,6	;RP1=0, select bank0
  4779  0D26  07A0               	addwf	log_event@addr,f
  4780  0D27                     l2310:
  4781                           
  4782                           ;C:/Users/Shreesh Kulkarni/OneDrive/Desktop/Shreesh/Car_Black_Box.X/car_black_box_def.c:
      +                           70:     }
  4783  0D27  3001               	movlw	1
  4784  0D28  07A1               	addwf	log_event@i,f
  4785  0D29  1803               	skipnc
  4786  0D2A  0AA2               	incf	log_event@i+1,f
  4787  0D2B  3000               	movlw	0
  4788  0D2C  07A2               	addwf	log_event@i+1,f
  4789  0D2D                     l2312:
  4790  0D2D  0821               	movf	log_event@i,w
  4791  0D2E  3EA0               	addlw	(low (_log| 0))& (0+255)
  4792  0D2F  0084               	movwf	4
  4793  0D30  1383               	bcf	3,7	;select IRP bank1
  4794  0D31  0800               	movf	0,w
  4795  0D32  1D03               	btfss	3,2
  4796  0D33  2D35               	goto	u1371
  4797  0D34  2D36               	goto	u1370
  4798  0D35                     u1371:
  4799  0D35  2D14               	goto	l2306
  4800  0D36                     u1370:
  4801  0D36                     l2314:
  4802                           
  4803                           ;C:/Users/Shreesh Kulkarni/OneDrive/Desktop/Shreesh/Car_Black_Box.X/car_black_box_def.c:
      +                           71:     if (event_count<9)
  4804  0D36  084F               	movf	_event_count+1,w
  4805  0D37  3A80               	xorlw	128
  4806  0D38  00FF               	movwf	btemp+1
  4807  0D39  3080               	movlw	128
  4808  0D3A  027F               	subwf	btemp+1,w
  4809  0D3B  1D03               	skipz
  4810  0D3C  2D3F               	goto	u1385
  4811  0D3D  3009               	movlw	9
  4812  0D3E  024E               	subwf	_event_count,w
  4813  0D3F                     u1385:
  4814  0D3F  1803               	skipnc
  4815  0D40  2D42               	goto	u1381
  4816  0D41  2D43               	goto	u1380
  4817  0D42                     u1381:
  4818  0D42  2D4B               	goto	l295
  4819  0D43                     u1380:
  4820  0D43                     l2316:
  4821                           
  4822                           ;C:/Users/Shreesh Kulkarni/OneDrive/Desktop/Shreesh/Car_Black_Box.X/car_black_box_def.c:
      +                           72:     {;C:/Users/Shreesh Kulkarni/OneDrive/Desktop/Shreesh/Car_Black_Box.X/car_black_
      +                          box_def.c: 73:         event_count++;
  4823  0D43  3001               	movlw	1
  4824  0D44  1283               	bcf	3,5	;RP0=0, select bank0
  4825  0D45  1303               	bcf	3,6	;RP1=0, select bank0
  4826  0D46  07CE               	addwf	_event_count,f
  4827  0D47  1803               	skipnc
  4828  0D48  0ACF               	incf	_event_count+1,f
  4829  0D49  3000               	movlw	0
  4830  0D4A  07CF               	addwf	_event_count+1,f
  4831  0D4B                     l295:
  4832  0D4B  0008               	return
  4833  0D4C                     __end_of_log_event:
  4834                           
  4835                           	psect	text11
  4836  09A2                     __ptext11:	
  4837 ;; *************** function ___bmul *****************
  4838 ;; Defined at:
  4839 ;;		line 4 in file "C:\Program Files\Microchip\xc8\v2.36\pic\sources\c90\common\Umul8.c"
  4840 ;; Parameters:    Size  Location     Type
  4841 ;;  multiplier      1    wreg     unsigned char 
  4842 ;;  multiplicand    1    2[COMMON] unsigned char 
  4843 ;; Auto vars:     Size  Location     Type
  4844 ;;  multiplier      1    5[COMMON] unsigned char 
  4845 ;;  product         1    4[COMMON] unsigned char 
  4846 ;; Return value:  Size  Location     Type
  4847 ;;                  1    wreg      unsigned char 
  4848 ;; Registers used:
  4849 ;;		wreg, status,2, status,0
  4850 ;; Tracked objects:
  4851 ;;		On entry : 0/0
  4852 ;;		On exit  : 0/0
  4853 ;;		Unchanged: 0/0
  4854 ;; Data sizes:     COMMON   BANK0   BANK1   BANK3   BANK2
  4855 ;;      Params:         1       0       0       0       0
  4856 ;;      Locals:         2       0       0       0       0
  4857 ;;      Temps:          1       0       0       0       0
  4858 ;;      Totals:         4       0       0       0       0
  4859 ;;Total ram usage:        4 bytes
  4860 ;; Hardware stack levels used: 1
  4861 ;; Hardware stack levels required when called: 1
  4862 ;; This function calls:
  4863 ;;		Nothing
  4864 ;; This function is called by:
  4865 ;;		_log_event
  4866 ;;		_view_log
  4867 ;; This function uses a non-reentrant model
  4868 ;;
  4869                           
  4870  09A2                     ___bmul:	
  4871                           ;psect for function ___bmul
  4872                           
  4873                           
  4874                           ;incstack = 0
  4875                           ; Regs used in ___bmul: [wreg+status,2+status,0]
  4876                           ;___bmul@multiplier stored from wreg
  4877  09A2  00F5               	movwf	___bmul@multiplier
  4878  09A3                     l2214:
  4879  09A3  01F4               	clrf	___bmul@product
  4880  09A4                     l2216:
  4881  09A4  1C75               	btfss	___bmul@multiplier,0
  4882  09A5  29A7               	goto	u1251
  4883  09A6  29A8               	goto	u1250
  4884  09A7                     u1251:
  4885  09A7  29AC               	goto	l2220
  4886  09A8                     u1250:
  4887  09A8                     l2218:
  4888  09A8  0872               	movf	___bmul@multiplicand,w
  4889  09A9  00F3               	movwf	??___bmul
  4890  09AA  0873               	movf	??___bmul,w
  4891  09AB  07F4               	addwf	___bmul@product,f
  4892  09AC                     l2220:
  4893  09AC  1003               	clrc
  4894  09AD  0DF2               	rlf	___bmul@multiplicand,f
  4895  09AE                     l2222:
  4896  09AE  1003               	clrc
  4897  09AF  0CF5               	rrf	___bmul@multiplier,f
  4898  09B0  0875               	movf	___bmul@multiplier,w
  4899  09B1  1D03               	btfss	3,2
  4900  09B2  29B4               	goto	u1261
  4901  09B3  29B5               	goto	u1260
  4902  09B4                     u1261:
  4903  09B4  29A4               	goto	l2216
  4904  09B5                     u1260:
  4905  09B5                     l2224:
  4906  09B5  0874               	movf	___bmul@product,w
  4907  09B6                     l557:
  4908  09B6  0008               	return
  4909  09B7                     __end_of___bmul:
  4910                           
  4911                           	psect	text12
  4912  0A7B                     __ptext12:	
  4913 ;; *************** function _init_config *****************
  4914 ;; Defined at:
  4915 ;;		line 14 in file "C:/Users/Shreesh Kulkarni/OneDrive/Desktop/Shreesh/Car_Black_Box.X/main.c"
  4916 ;; Parameters:    Size  Location     Type
  4917 ;;		None
  4918 ;; Auto vars:     Size  Location     Type
  4919 ;;		None
  4920 ;; Return value:  Size  Location     Type
  4921 ;;                  1    wreg      void 
  4922 ;; Registers used:
  4923 ;;		wreg, status,2, status,0, pclath, cstack
  4924 ;; Tracked objects:
  4925 ;;		On entry : 0/0
  4926 ;;		On exit  : 0/0
  4927 ;;		Unchanged: 0/0
  4928 ;; Data sizes:     COMMON   BANK0   BANK1   BANK3   BANK2
  4929 ;;      Params:         0       0       0       0       0
  4930 ;;      Locals:         0       0       0       0       0
  4931 ;;      Temps:          0       0       0       0       0
  4932 ;;      Totals:         0       0       0       0       0
  4933 ;;Total ram usage:        0 bytes
  4934 ;; Hardware stack levels used: 1
  4935 ;; Hardware stack levels required when called: 6
  4936 ;; This function calls:
  4937 ;;		_init_adc
  4938 ;;		_init_clcd
  4939 ;;		_init_digital_keypad
  4940 ;;		_init_ds1307
  4941 ;;		_init_i2c
  4942 ;;		_init_timer2
  4943 ;; This function is called by:
  4944 ;;		_main
  4945 ;; This function uses a non-reentrant model
  4946 ;;
  4947                           
  4948  0A7B                     _init_config:	
  4949                           ;psect for function _init_config
  4950                           
  4951  0A7B                     l3300:	
  4952                           ;incstack = 0
  4953                           ; Regs used in _init_config: [wreg+status,2+status,0+pclath+cstack]
  4954                           
  4955                           
  4956                           ;C:/Users/Shreesh Kulkarni/OneDrive/Desktop/Shreesh/Car_Black_Box.X/main.c: 15:     unsi
      +                          gned char speed=0;
  4957  0A7B  120A  158A  212A  120A  158A  	fcall	_init_clcd
  4958                           
  4959                           ;C:/Users/Shreesh Kulkarni/OneDrive/Desktop/Shreesh/Car_Black_Box.X/main.c: 16:     unsi
      +                          gned char control_flag=1;
  4960  0A80  3000               	movlw	0
  4961  0A81  1283               	bcf	3,5	;RP0=0, select bank0
  4962  0A82  1303               	bcf	3,6	;RP1=0, select bank0
  4963  0A83  00AB               	movwf	init_i2c@baud+3
  4964  0A84  3001               	movlw	1
  4965  0A85  00AA               	movwf	init_i2c@baud+2
  4966  0A86  3086               	movlw	134
  4967  0A87  00A9               	movwf	init_i2c@baud+1
  4968  0A88  30A0               	movlw	160
  4969  0A89  00A8               	movwf	init_i2c@baud
  4970  0A8A  120A  158A  2362  120A  158A  	fcall	_init_i2c
  4971                           
  4972                           ;C:/Users/Shreesh Kulkarni/OneDrive/Desktop/Shreesh/Car_Black_Box.X/main.c: 18:     unsi
      +                          gned char gr=0;
  4973  0A8F  120A  158A  21CE  120A  158A  	fcall	_init_ds1307
  4974  0A94                     l3302:
  4975                           
  4976                           ;C:/Users/Shreesh Kulkarni/OneDrive/Desktop/Shreesh/Car_Black_Box.X/main.c: 20:     log_
      +                          car_event(event,speed);
  4977  0A94  160A  118A  27BF  120A  158A  	fcall	_init_adc
  4978  0A99                     l3304:
  4979                           
  4980                           ;C:/Users/Shreesh Kulkarni/OneDrive/Desktop/Shreesh/Car_Black_Box.X/main.c: 22:     eepr
      +                          om_write(0x00,'2');
  4981  0A99  160A  118A  27B9  120A  158A  	fcall	_init_digital_keypad
  4982  0A9E                     l3306:
  4983                           
  4984                           ;C:/Users/Shreesh Kulkarni/OneDrive/Desktop/Shreesh/Car_Black_Box.X/main.c: 23:     eepr
      +                          om_write(0x01,'4');
  4985  0A9E  120A  158A  215B  120A  158A  	fcall	_init_timer2
  4986  0AA3                     l3308:
  4987                           
  4988                           ;C:/Users/Shreesh Kulkarni/OneDrive/Desktop/Shreesh/Car_Black_Box.X/main.c: 24:     eepr
      +                          om_write(0x02,'2');
  4989  0AA3  170B               	bsf	11,6	;volatile
  4990  0AA4                     l3310:
  4991                           
  4992                           ;C:/Users/Shreesh Kulkarni/OneDrive/Desktop/Shreesh/Car_Black_Box.X/main.c: 25:     eepr
      +                          om_write(0x03,'4');
  4993  0AA4  178B               	bsf	11,7	;volatile
  4994  0AA5                     l198:
  4995  0AA5  0008               	return
  4996  0AA6                     __end_of_init_config:
  4997                           
  4998                           	psect	text13
  4999  095B                     __ptext13:	
  5000 ;; *************** function _init_timer2 *****************
  5001 ;; Defined at:
  5002 ;;		line 11 in file "C:/Users/Shreesh Kulkarni/OneDrive/Desktop/Shreesh/Car_Black_Box.X/timers.c"
  5003 ;; Parameters:    Size  Location     Type
  5004 ;;		None
  5005 ;; Auto vars:     Size  Location     Type
  5006 ;;		None
  5007 ;; Return value:  Size  Location     Type
  5008 ;;                  1    wreg      void 
  5009 ;; Registers used:
  5010 ;;		wreg
  5011 ;; Tracked objects:
  5012 ;;		On entry : 0/0
  5013 ;;		On exit  : 0/0
  5014 ;;		Unchanged: 0/0
  5015 ;; Data sizes:     COMMON   BANK0   BANK1   BANK3   BANK2
  5016 ;;      Params:         0       0       0       0       0
  5017 ;;      Locals:         0       0       0       0       0
  5018 ;;      Temps:          0       0       0       0       0
  5019 ;;      Totals:         0       0       0       0       0
  5020 ;;Total ram usage:        0 bytes
  5021 ;; Hardware stack levels used: 1
  5022 ;; Hardware stack levels required when called: 1
  5023 ;; This function calls:
  5024 ;;		Nothing
  5025 ;; This function is called by:
  5026 ;;		_init_config
  5027 ;; This function uses a non-reentrant model
  5028 ;;
  5029                           
  5030  095B                     _init_timer2:	
  5031                           ;psect for function _init_timer2
  5032                           
  5033  095B                     l2284:	
  5034                           ;incstack = 0
  5035                           ; Regs used in _init_timer2: [wreg]
  5036                           
  5037                           
  5038                           ;C:/Users/Shreesh Kulkarni/OneDrive/Desktop/Shreesh/Car_Black_Box.X/timers.c: 14:     T2
      +                          CKPS0 = 1;
  5039  095B  1283               	bcf	3,5	;RP0=0, select bank0
  5040  095C  1303               	bcf	3,6	;RP1=0, select bank0
  5041  095D  1412               	bsf	18,0	;volatile
  5042                           
  5043                           ;C:/Users/Shreesh Kulkarni/OneDrive/Desktop/Shreesh/Car_Black_Box.X/timers.c: 15:     T2
      +                          CKPS1 = 1;
  5044  095E  1492               	bsf	18,1	;volatile
  5045  095F                     l2286:
  5046                           
  5047                           ;C:/Users/Shreesh Kulkarni/OneDrive/Desktop/Shreesh/Car_Black_Box.X/timers.c: 18:     PR
      +                          2 = 250;
  5048  095F  30FA               	movlw	250
  5049  0960  1683               	bsf	3,5	;RP0=1, select bank1
  5050  0961  1303               	bcf	3,6	;RP1=0, select bank1
  5051  0962  0092               	movwf	18	;volatile
  5052  0963                     l2288:
  5053                           
  5054                           ;C:/Users/Shreesh Kulkarni/OneDrive/Desktop/Shreesh/Car_Black_Box.X/timers.c: 21:     TM
      +                          R2IE = 1;
  5055  0963  148C               	bsf	12,1	;volatile
  5056  0964                     l2290:
  5057                           
  5058                           ;C:/Users/Shreesh Kulkarni/OneDrive/Desktop/Shreesh/Car_Black_Box.X/timers.c: 24:     TM
      +                          R2ON = 0;
  5059  0964  1283               	bcf	3,5	;RP0=0, select bank0
  5060  0965  1303               	bcf	3,6	;RP1=0, select bank0
  5061  0966  1112               	bcf	18,2	;volatile
  5062  0967                     l390:
  5063  0967  0008               	return
  5064  0968                     __end_of_init_timer2:
  5065                           
  5066                           	psect	text14
  5067  0B62                     __ptext14:	
  5068 ;; *************** function _init_i2c *****************
  5069 ;; Defined at:
  5070 ;;		line 12 in file "C:/Users/Shreesh Kulkarni/OneDrive/Desktop/Shreesh/Car_Black_Box.X/i2c.c"
  5071 ;; Parameters:    Size  Location     Type
  5072 ;;  baud            4    8[BANK0 ] unsigned long 
  5073 ;; Auto vars:     Size  Location     Type
  5074 ;;		None
  5075 ;; Return value:  Size  Location     Type
  5076 ;;                  1    wreg      void 
  5077 ;; Registers used:
  5078 ;;		wreg, status,2, status,0, pclath, cstack
  5079 ;; Tracked objects:
  5080 ;;		On entry : 0/0
  5081 ;;		On exit  : 0/0
  5082 ;;		Unchanged: 0/0
  5083 ;; Data sizes:     COMMON   BANK0   BANK1   BANK3   BANK2
  5084 ;;      Params:         0       4       0       0       0
  5085 ;;      Locals:         0       0       0       0       0
  5086 ;;      Temps:          0       4       0       0       0
  5087 ;;      Totals:         0       8       0       0       0
  5088 ;;Total ram usage:        8 bytes
  5089 ;; Hardware stack levels used: 1
  5090 ;; Hardware stack levels required when called: 2
  5091 ;; This function calls:
  5092 ;;		___lldiv
  5093 ;; This function is called by:
  5094 ;;		_init_config
  5095 ;; This function uses a non-reentrant model
  5096 ;;
  5097                           
  5098  0B62                     _init_i2c:	
  5099                           ;psect for function _init_i2c
  5100                           
  5101  0B62                     l3272:	
  5102                           ;incstack = 0
  5103                           ; Regs used in _init_i2c: [wreg+status,2+status,0+pclath+cstack]
  5104                           
  5105                           
  5106                           ;C:/Users/Shreesh Kulkarni/OneDrive/Desktop/Shreesh/Car_Black_Box.X/i2c.c: 12: void init
      +                          _i2c(unsigned long baud);C:/Users/Shreesh Kulkarni/OneDrive/Desktop/Shreesh/Car_Black_Bo
      +                          x.X/i2c.c: 13: {;C:/Users/Shreesh Kulkarni/OneDrive/Desktop/Shreesh/Car_Black_Box.X/i2c.
      +                          c: 15:     SSPM3 = 1;
  5107  0B62  1283               	bcf	3,5	;RP0=0, select bank0
  5108  0B63  1303               	bcf	3,6	;RP1=0, select bank0
  5109  0B64  1594               	bsf	20,3	;volatile
  5110  0B65                     l3274:
  5111                           
  5112                           ;C:/Users/Shreesh Kulkarni/OneDrive/Desktop/Shreesh/Car_Black_Box.X/i2c.c: 18:     SSPAD
      +                          D = (unsigned char)(20000000 / (4 * baud)) - 1;
  5113  0B65  0828               	movf	init_i2c@baud,w
  5114  0B66  00AC               	movwf	??_init_i2c
  5115  0B67  0829               	movf	init_i2c@baud+1,w
  5116  0B68  00AD               	movwf	??_init_i2c+1
  5117  0B69  082A               	movf	init_i2c@baud+2,w
  5118  0B6A  00AE               	movwf	??_init_i2c+2
  5119  0B6B  082B               	movf	init_i2c@baud+3,w
  5120  0B6C  00AF               	movwf	??_init_i2c+3
  5121  0B6D  3002               	movlw	2
  5122  0B6E                     u2475:
  5123  0B6E  1003               	clrc
  5124  0B6F  0DAC               	rlf	??_init_i2c,f
  5125  0B70  0DAD               	rlf	??_init_i2c+1,f
  5126  0B71  0DAE               	rlf	??_init_i2c+2,f
  5127  0B72  0DAF               	rlf	??_init_i2c+3,f
  5128  0B73                     u2470:
  5129  0B73  3EFF               	addlw	-1
  5130  0B74  1D03               	skipz
  5131  0B75  2B6E               	goto	u2475
  5132  0B76  082F               	movf	??_init_i2c+3,w
  5133  0B77  00A3               	movwf	___lldiv@divisor+3
  5134  0B78  082E               	movf	??_init_i2c+2,w
  5135  0B79  00A2               	movwf	___lldiv@divisor+2
  5136  0B7A  082D               	movf	??_init_i2c+1,w
  5137  0B7B  00A1               	movwf	___lldiv@divisor+1
  5138  0B7C  082C               	movf	??_init_i2c,w
  5139  0B7D  00A0               	movwf	___lldiv@divisor
  5140  0B7E  3001               	movlw	1
  5141  0B7F  00A7               	movwf	___lldiv@dividend+3
  5142  0B80  3031               	movlw	49
  5143  0B81  00A6               	movwf	___lldiv@dividend+2
  5144  0B82  302D               	movlw	45
  5145  0B83  00A5               	movwf	___lldiv@dividend+1
  5146  0B84  3000               	movlw	0
  5147  0B85  00A4               	movwf	___lldiv@dividend
  5148  0B86  120A  158A  272F  120A  158A  	fcall	___lldiv
  5149  0B8B  1283               	bcf	3,5	;RP0=0, select bank0
  5150  0B8C  1303               	bcf	3,6	;RP1=0, select bank0
  5151  0B8D  0820               	movf	?___lldiv,w
  5152  0B8E  3EFF               	addlw	255
  5153  0B8F  1683               	bsf	3,5	;RP0=1, select bank1
  5154  0B90  1303               	bcf	3,6	;RP1=0, select bank1
  5155  0B91  0093               	movwf	19	;volatile
  5156  0B92                     l3276:
  5157                           
  5158                           ;C:/Users/Shreesh Kulkarni/OneDrive/Desktop/Shreesh/Car_Black_Box.X/i2c.c: 21:     SSPEN
      +                           = 1;
  5159  0B92  1283               	bcf	3,5	;RP0=0, select bank0
  5160  0B93  1303               	bcf	3,6	;RP1=0, select bank0
  5161  0B94  1694               	bsf	20,5	;volatile
  5162  0B95                     l90:
  5163  0B95  0008               	return
  5164  0B96                     __end_of_init_i2c:
  5165                           
  5166                           	psect	text15
  5167  0F2F                     __ptext15:	
  5168 ;; *************** function ___lldiv *****************
  5169 ;; Defined at:
  5170 ;;		line 5 in file "C:\Program Files\Microchip\xc8\v2.36\pic\sources\c90\common\__lldiv.c"
  5171 ;; Parameters:    Size  Location     Type
  5172 ;;  divisor         4    0[BANK0 ] unsigned long 
  5173 ;;  dividend        4    4[BANK0 ] unsigned long 
  5174 ;; Auto vars:     Size  Location     Type
  5175 ;;  quotient        4    3[COMMON] unsigned long 
  5176 ;;  counter         1    7[COMMON] unsigned char 
  5177 ;; Return value:  Size  Location     Type
  5178 ;;                  4    0[BANK0 ] unsigned long 
  5179 ;; Registers used:
  5180 ;;		wreg, status,2, status,0
  5181 ;; Tracked objects:
  5182 ;;		On entry : 0/0
  5183 ;;		On exit  : 0/0
  5184 ;;		Unchanged: 0/0
  5185 ;; Data sizes:     COMMON   BANK0   BANK1   BANK3   BANK2
  5186 ;;      Params:         0       8       0       0       0
  5187 ;;      Locals:         5       0       0       0       0
  5188 ;;      Temps:          1       0       0       0       0
  5189 ;;      Totals:         6       8       0       0       0
  5190 ;;Total ram usage:       14 bytes
  5191 ;; Hardware stack levels used: 1
  5192 ;; Hardware stack levels required when called: 1
  5193 ;; This function calls:
  5194 ;;		Nothing
  5195 ;; This function is called by:
  5196 ;;		_init_i2c
  5197 ;; This function uses a non-reentrant model
  5198 ;;
  5199                           
  5200  0F2F                     ___lldiv:	
  5201                           ;psect for function ___lldiv
  5202                           
  5203  0F2F                     l3242:	
  5204                           ;incstack = 0
  5205                           ; Regs used in ___lldiv: [wreg+status,2+status,0]
  5206                           
  5207  0F2F  3000               	movlw	0
  5208  0F30  00F6               	movwf	___lldiv@quotient+3
  5209  0F31  3000               	movlw	0
  5210  0F32  00F5               	movwf	___lldiv@quotient+2
  5211  0F33  3000               	movlw	0
  5212  0F34  00F4               	movwf	___lldiv@quotient+1
  5213  0F35  3000               	movlw	0
  5214  0F36  00F3               	movwf	___lldiv@quotient
  5215  0F37  1283               	bcf	3,5	;RP0=0, select bank0
  5216  0F38  1303               	bcf	3,6	;RP1=0, select bank0
  5217  0F39  0823               	movf	___lldiv@divisor+3,w
  5218  0F3A  0422               	iorwf	___lldiv@divisor+2,w
  5219  0F3B  0421               	iorwf	___lldiv@divisor+1,w
  5220  0F3C  0420               	iorwf	___lldiv@divisor,w
  5221  0F3D  1903               	skipnz
  5222  0F3E  2F40               	goto	u2401
  5223  0F3F  2F41               	goto	u2400
  5224  0F40                     u2401:
  5225  0F40  2F8E               	goto	l3262
  5226  0F41                     u2400:
  5227  0F41                     l3244:
  5228  0F41  01F7               	clrf	___lldiv@counter
  5229  0F42  0AF7               	incf	___lldiv@counter,f
  5230  0F43  2F51               	goto	l3248
  5231  0F44                     l3246:
  5232  0F44  3001               	movlw	1
  5233  0F45  00F2               	movwf	??___lldiv
  5234  0F46                     u2415:
  5235  0F46  1003               	clrc
  5236  0F47  0DA0               	rlf	___lldiv@divisor,f
  5237  0F48  0DA1               	rlf	___lldiv@divisor+1,f
  5238  0F49  0DA2               	rlf	___lldiv@divisor+2,f
  5239  0F4A  0DA3               	rlf	___lldiv@divisor+3,f
  5240  0F4B  0BF2               	decfsz	??___lldiv,f
  5241  0F4C  2F46               	goto	u2415
  5242  0F4D  3001               	movlw	1
  5243  0F4E  00F2               	movwf	??___lldiv
  5244  0F4F  0872               	movf	??___lldiv,w
  5245  0F50  07F7               	addwf	___lldiv@counter,f
  5246  0F51                     l3248:
  5247  0F51  1FA3               	btfss	___lldiv@divisor+3,7
  5248  0F52  2F54               	goto	u2421
  5249  0F53  2F55               	goto	u2420
  5250  0F54                     u2421:
  5251  0F54  2F44               	goto	l3246
  5252  0F55                     u2420:
  5253  0F55                     l3250:
  5254  0F55  3001               	movlw	1
  5255  0F56  00F2               	movwf	??___lldiv
  5256  0F57                     u2435:
  5257  0F57  1003               	clrc
  5258  0F58  0DF3               	rlf	___lldiv@quotient,f
  5259  0F59  0DF4               	rlf	___lldiv@quotient+1,f
  5260  0F5A  0DF5               	rlf	___lldiv@quotient+2,f
  5261  0F5B  0DF6               	rlf	___lldiv@quotient+3,f
  5262  0F5C  0BF2               	decfsz	??___lldiv,f
  5263  0F5D  2F57               	goto	u2435
  5264  0F5E                     l3252:
  5265  0F5E  0823               	movf	___lldiv@divisor+3,w
  5266  0F5F  0227               	subwf	___lldiv@dividend+3,w
  5267  0F60  1D03               	skipz
  5268  0F61  2F6C               	goto	u2445
  5269  0F62  0822               	movf	___lldiv@divisor+2,w
  5270  0F63  0226               	subwf	___lldiv@dividend+2,w
  5271  0F64  1D03               	skipz
  5272  0F65  2F6C               	goto	u2445
  5273  0F66  0821               	movf	___lldiv@divisor+1,w
  5274  0F67  0225               	subwf	___lldiv@dividend+1,w
  5275  0F68  1D03               	skipz
  5276  0F69  2F6C               	goto	u2445
  5277  0F6A  0820               	movf	___lldiv@divisor,w
  5278  0F6B  0224               	subwf	___lldiv@dividend,w
  5279  0F6C                     u2445:
  5280  0F6C  1C03               	skipc
  5281  0F6D  2F6F               	goto	u2441
  5282  0F6E  2F70               	goto	u2440
  5283  0F6F                     u2441:
  5284  0F6F  2F7F               	goto	l3258
  5285  0F70                     u2440:
  5286  0F70                     l3254:
  5287  0F70  0820               	movf	___lldiv@divisor,w
  5288  0F71  02A4               	subwf	___lldiv@dividend,f
  5289  0F72  0821               	movf	___lldiv@divisor+1,w
  5290  0F73  1C03               	skipc
  5291  0F74  0F21               	incfsz	___lldiv@divisor+1,w
  5292  0F75  02A5               	subwf	___lldiv@dividend+1,f
  5293  0F76  0822               	movf	___lldiv@divisor+2,w
  5294  0F77  1C03               	skipc
  5295  0F78  0F22               	incfsz	___lldiv@divisor+2,w
  5296  0F79  02A6               	subwf	___lldiv@dividend+2,f
  5297  0F7A  0823               	movf	___lldiv@divisor+3,w
  5298  0F7B  1C03               	skipc
  5299  0F7C  0F23               	incfsz	___lldiv@divisor+3,w
  5300  0F7D  02A7               	subwf	___lldiv@dividend+3,f
  5301  0F7E                     l3256:
  5302  0F7E  1473               	bsf	___lldiv@quotient,0
  5303  0F7F                     l3258:
  5304  0F7F  3001               	movlw	1
  5305  0F80                     u2455:
  5306  0F80  1003               	clrc
  5307  0F81  0CA3               	rrf	___lldiv@divisor+3,f
  5308  0F82  0CA2               	rrf	___lldiv@divisor+2,f
  5309  0F83  0CA1               	rrf	___lldiv@divisor+1,f
  5310  0F84  0CA0               	rrf	___lldiv@divisor,f
  5311  0F85  3EFF               	addlw	-1
  5312  0F86  1D03               	skipz
  5313  0F87  2F80               	goto	u2455
  5314  0F88                     l3260:
  5315  0F88  3001               	movlw	1
  5316  0F89  02F7               	subwf	___lldiv@counter,f
  5317  0F8A  1D03               	btfss	3,2
  5318  0F8B  2F8D               	goto	u2461
  5319  0F8C  2F8E               	goto	u2460
  5320  0F8D                     u2461:
  5321  0F8D  2F55               	goto	l3250
  5322  0F8E                     u2460:
  5323  0F8E                     l3262:
  5324  0F8E  0876               	movf	___lldiv@quotient+3,w
  5325  0F8F  00A3               	movwf	?___lldiv+3
  5326  0F90  0875               	movf	___lldiv@quotient+2,w
  5327  0F91  00A2               	movwf	?___lldiv+2
  5328  0F92  0874               	movf	___lldiv@quotient+1,w
  5329  0F93  00A1               	movwf	?___lldiv+1
  5330  0F94  0873               	movf	___lldiv@quotient,w
  5331  0F95  00A0               	movwf	?___lldiv
  5332  0F96                     l567:
  5333  0F96  0008               	return
  5334  0F97                     __end_of___lldiv:
  5335                           
  5336                           	psect	text16
  5337  09CE                     __ptext16:	
  5338 ;; *************** function _init_ds1307 *****************
  5339 ;; Defined at:
  5340 ;;		line 13 in file "C:/Users/Shreesh Kulkarni/OneDrive/Desktop/Shreesh/Car_Black_Box.X/ds1307.c"
  5341 ;; Parameters:    Size  Location     Type
  5342 ;;		None
  5343 ;; Auto vars:     Size  Location     Type
  5344 ;;  dummy           1    0[BANK0 ] unsigned char 
  5345 ;; Return value:  Size  Location     Type
  5346 ;;                  1    wreg      void 
  5347 ;; Registers used:
  5348 ;;		wreg, status,2, status,0, pclath, cstack
  5349 ;; Tracked objects:
  5350 ;;		On entry : 0/0
  5351 ;;		On exit  : 0/0
  5352 ;;		Unchanged: 0/0
  5353 ;; Data sizes:     COMMON   BANK0   BANK1   BANK3   BANK2
  5354 ;;      Params:         0       0       0       0       0
  5355 ;;      Locals:         0       1       0       0       0
  5356 ;;      Temps:          1       0       0       0       0
  5357 ;;      Totals:         1       1       0       0       0
  5358 ;;Total ram usage:        2 bytes
  5359 ;; Hardware stack levels used: 1
  5360 ;; Hardware stack levels required when called: 5
  5361 ;; This function calls:
  5362 ;;		_read_ds1307
  5363 ;;		_write_ds1307
  5364 ;; This function is called by:
  5365 ;;		_init_config
  5366 ;; This function uses a non-reentrant model
  5367 ;;
  5368                           
  5369  09CE                     _init_ds1307:	
  5370                           ;psect for function _init_ds1307
  5371                           
  5372  09CE                     l3266:	
  5373                           ;incstack = 0
  5374                           ; Regs used in _init_ds1307: [wreg+status,2+status,0+pclath+cstack]
  5375                           
  5376                           
  5377                           ;C:/Users/Shreesh Kulkarni/OneDrive/Desktop/Shreesh/Car_Black_Box.X/ds1307.c: 15:     un
      +                          signed char dummy;;C:/Users/Shreesh Kulkarni/OneDrive/Desktop/Shreesh/Car_Black_Box.X/ds
      +                          1307.c: 17:     dummy = read_ds1307(0x00);
  5378  09CE  3000               	movlw	0
  5379  09CF  120A  158A  22D3  120A  158A  	fcall	_read_ds1307
  5380  09D4  00F8               	movwf	??_init_ds1307
  5381  09D5  0878               	movf	??_init_ds1307,w
  5382  09D6  1283               	bcf	3,5	;RP0=0, select bank0
  5383  09D7  1303               	bcf	3,6	;RP1=0, select bank0
  5384  09D8  00A0               	movwf	init_ds1307@dummy
  5385  09D9                     l3268:
  5386                           
  5387                           ;C:/Users/Shreesh Kulkarni/OneDrive/Desktop/Shreesh/Car_Black_Box.X/ds1307.c: 18:     du
      +                          mmy = dummy & 0x7F;
  5388  09D9  0820               	movf	init_ds1307@dummy,w
  5389  09DA  397F               	andlw	127
  5390  09DB  00F8               	movwf	??_init_ds1307
  5391  09DC  0878               	movf	??_init_ds1307,w
  5392  09DD  00A0               	movwf	init_ds1307@dummy
  5393  09DE                     l3270:
  5394                           
  5395                           ;C:/Users/Shreesh Kulkarni/OneDrive/Desktop/Shreesh/Car_Black_Box.X/ds1307.c: 19:     wr
      +                          ite_ds1307(0x00, dummy);
  5396  09DE  0820               	movf	init_ds1307@dummy,w
  5397  09DF  00F8               	movwf	??_init_ds1307
  5398  09E0  0878               	movf	??_init_ds1307,w
  5399  09E1  00F3               	movwf	write_ds1307@data
  5400  09E2  3000               	movlw	0
  5401  09E3  120A  158A  21E9  120A  158A  	fcall	_write_ds1307
  5402  09E8                     l55:
  5403  09E8  0008               	return
  5404  09E9                     __end_of_init_ds1307:
  5405                           
  5406                           	psect	text17
  5407  09E9                     __ptext17:	
  5408 ;; *************** function _write_ds1307 *****************
  5409 ;; Defined at:
  5410 ;;		line 37 in file "C:/Users/Shreesh Kulkarni/OneDrive/Desktop/Shreesh/Car_Black_Box.X/ds1307.c"
  5411 ;; Parameters:    Size  Location     Type
  5412 ;;  addr            1    wreg     unsigned char 
  5413 ;;  data            1    3[COMMON] unsigned char 
  5414 ;; Auto vars:     Size  Location     Type
  5415 ;;  addr            1    4[COMMON] unsigned char 
  5416 ;; Return value:  Size  Location     Type
  5417 ;;                  1    wreg      void 
  5418 ;; Registers used:
  5419 ;;		wreg, status,2, status,0, pclath, cstack
  5420 ;; Tracked objects:
  5421 ;;		On entry : 0/0
  5422 ;;		On exit  : 0/0
  5423 ;;		Unchanged: 0/0
  5424 ;; Data sizes:     COMMON   BANK0   BANK1   BANK3   BANK2
  5425 ;;      Params:         1       0       0       0       0
  5426 ;;      Locals:         1       0       0       0       0
  5427 ;;      Temps:          0       0       0       0       0
  5428 ;;      Totals:         2       0       0       0       0
  5429 ;;Total ram usage:        2 bytes
  5430 ;; Hardware stack levels used: 1
  5431 ;; Hardware stack levels required when called: 3
  5432 ;; This function calls:
  5433 ;;		_i2c_start
  5434 ;;		_i2c_stop
  5435 ;;		_i2c_write
  5436 ;; This function is called by:
  5437 ;;		_init_ds1307
  5438 ;; This function uses a non-reentrant model
  5439 ;;
  5440                           
  5441  09E9                     _write_ds1307:	
  5442                           ;psect for function _write_ds1307
  5443                           
  5444                           
  5445                           ;incstack = 0
  5446                           ; Regs used in _write_ds1307: [wreg+status,2+status,0+pclath+cstack]
  5447                           ;write_ds1307@addr stored from wreg
  5448  09E9  00F4               	movwf	write_ds1307@addr
  5449  09EA                     l3202:
  5450                           
  5451                           ;C:/Users/Shreesh Kulkarni/OneDrive/Desktop/Shreesh/Car_Black_Box.X/ds1307.c: 37: void w
      +                          rite_ds1307(unsigned char addr, unsigned char data);C:/Users/Shreesh Kulkarni/OneDrive/D
      +                          esktop/Shreesh/Car_Black_Box.X/ds1307.c: 38: {;C:/Users/Shreesh Kulkarni/OneDrive/Deskto
      +                          p/Shreesh/Car_Black_Box.X/ds1307.c: 39:     i2c_start();
  5452  09EA  160A  118A  27CE  120A  158A  	fcall	_i2c_start
  5453                           
  5454                           ;C:/Users/Shreesh Kulkarni/OneDrive/Desktop/Shreesh/Car_Black_Box.X/ds1307.c: 40:     i2
      +                          c_write(0b11010000);
  5455  09EF  30D0               	movlw	208
  5456  09F0  160A  118A  27F5  120A  158A  	fcall	_i2c_write
  5457                           
  5458                           ;C:/Users/Shreesh Kulkarni/OneDrive/Desktop/Shreesh/Car_Black_Box.X/ds1307.c: 41:     i2
      +                          c_write(addr);
  5459  09F5  0874               	movf	write_ds1307@addr,w
  5460  09F6  160A  118A  27F5  120A  158A  	fcall	_i2c_write
  5461                           
  5462                           ;C:/Users/Shreesh Kulkarni/OneDrive/Desktop/Shreesh/Car_Black_Box.X/ds1307.c: 42:     i2
      +                          c_write(data);
  5463  09FB  0873               	movf	write_ds1307@data,w
  5464  09FC  160A  118A  27F5  120A  158A  	fcall	_i2c_write
  5465                           
  5466                           ;C:/Users/Shreesh Kulkarni/OneDrive/Desktop/Shreesh/Car_Black_Box.X/ds1307.c: 43:     i2
      +                          c_stop();
  5467  0A01  160A  118A  27D7  120A  158A  	fcall	_i2c_stop
  5468  0A06                     l61:
  5469  0A06  0008               	return
  5470  0A07                     __end_of_write_ds1307:
  5471                           
  5472                           	psect	text18
  5473  17B9                     __ptext18:	
  5474 ;; *************** function _init_digital_keypad *****************
  5475 ;; Defined at:
  5476 ;;		line 14 in file "C:/Users/Shreesh Kulkarni/OneDrive/Desktop/Shreesh/Car_Black_Box.X/digital_keypad.c"
  5477 ;; Parameters:    Size  Location     Type
  5478 ;;		None
  5479 ;; Auto vars:     Size  Location     Type
  5480 ;;		None
  5481 ;; Return value:  Size  Location     Type
  5482 ;;                  1    wreg      void 
  5483 ;; Registers used:
  5484 ;;		wreg, status,2
  5485 ;; Tracked objects:
  5486 ;;		On entry : 0/0
  5487 ;;		On exit  : 0/0
  5488 ;;		Unchanged: 0/0
  5489 ;; Data sizes:     COMMON   BANK0   BANK1   BANK3   BANK2
  5490 ;;      Params:         0       0       0       0       0
  5491 ;;      Locals:         0       0       0       0       0
  5492 ;;      Temps:          0       0       0       0       0
  5493 ;;      Totals:         0       0       0       0       0
  5494 ;;Total ram usage:        0 bytes
  5495 ;; Hardware stack levels used: 1
  5496 ;; Hardware stack levels required when called: 1
  5497 ;; This function calls:
  5498 ;;		Nothing
  5499 ;; This function is called by:
  5500 ;;		_init_config
  5501 ;; This function uses a non-reentrant model
  5502 ;;
  5503                           
  5504  17B9                     _init_digital_keypad:	
  5505                           ;psect for function _init_digital_keypad
  5506                           
  5507  17B9                     l2252:	
  5508                           ;incstack = 0
  5509                           ; Regs used in _init_digital_keypad: [wreg+status,2]
  5510                           
  5511                           
  5512                           ;C:/Users/Shreesh Kulkarni/OneDrive/Desktop/Shreesh/Car_Black_Box.X/digital_keypad.c: 17
      +                          :     TRISB = TRISB | 0x3F;
  5513  17B9  1683               	bsf	3,5	;RP0=1, select bank1
  5514  17BA  1303               	bcf	3,6	;RP1=0, select bank1
  5515  17BB  0806               	movf	6,w	;volatile
  5516  17BC  383F               	iorlw	63
  5517  17BD  0086               	movwf	6	;volatile
  5518  17BE                     l7:
  5519  17BE  0008               	return
  5520  17BF                     __end_of_init_digital_keypad:
  5521                           
  5522                           	psect	text19
  5523  092A                     __ptext19:	
  5524 ;; *************** function _init_clcd *****************
  5525 ;; Defined at:
  5526 ;;		line 47 in file "C:/Users/Shreesh Kulkarni/OneDrive/Desktop/Shreesh/Car_Black_Box.X/clcd.c"
  5527 ;; Parameters:    Size  Location     Type
  5528 ;;		None
  5529 ;; Auto vars:     Size  Location     Type
  5530 ;;		None
  5531 ;; Return value:  Size  Location     Type
  5532 ;;                  1    wreg      void 
  5533 ;; Registers used:
  5534 ;;		wreg, status,2, status,0, pclath, cstack
  5535 ;; Tracked objects:
  5536 ;;		On entry : 0/0
  5537 ;;		On exit  : 0/0
  5538 ;;		Unchanged: 0/0
  5539 ;; Data sizes:     COMMON   BANK0   BANK1   BANK3   BANK2
  5540 ;;      Params:         0       0       0       0       0
  5541 ;;      Locals:         0       0       0       0       0
  5542 ;;      Temps:          0       0       0       0       0
  5543 ;;      Totals:         0       0       0       0       0
  5544 ;;Total ram usage:        0 bytes
  5545 ;; Hardware stack levels used: 1
  5546 ;; Hardware stack levels required when called: 3
  5547 ;; This function calls:
  5548 ;;		_init_display_controller
  5549 ;; This function is called by:
  5550 ;;		_init_config
  5551 ;; This function uses a non-reentrant model
  5552 ;;
  5553                           
  5554  092A                     _init_clcd:	
  5555                           ;psect for function _init_clcd
  5556                           
  5557  092A                     l3278:	
  5558                           ;incstack = 0
  5559                           ; Regs used in _init_clcd: [wreg+status,2+status,0+pclath+cstack]
  5560                           
  5561                           
  5562                           ;C:/Users/Shreesh Kulkarni/OneDrive/Desktop/Shreesh/Car_Black_Box.X/clcd.c: 50:     TRIS
      +                          D = 0x00;
  5563  092A  1683               	bsf	3,5	;RP0=1, select bank1
  5564  092B  1303               	bcf	3,6	;RP1=0, select bank1
  5565  092C  0188               	clrf	8	;volatile
  5566  092D                     l3280:
  5567                           
  5568                           ;C:/Users/Shreesh Kulkarni/OneDrive/Desktop/Shreesh/Car_Black_Box.X/clcd.c: 53:     TRIS
      +                          E2 = 0;
  5569  092D  1109               	bcf	9,2	;volatile
  5570  092E                     l3282:
  5571                           
  5572                           ;C:/Users/Shreesh Kulkarni/OneDrive/Desktop/Shreesh/Car_Black_Box.X/clcd.c: 54:     TRIS
      +                          E1 = 0;
  5573  092E  1089               	bcf	9,1	;volatile
  5574  092F                     l3284:
  5575                           
  5576                           ;C:/Users/Shreesh Kulkarni/OneDrive/Desktop/Shreesh/Car_Black_Box.X/clcd.c: 56:     init
      +                          _display_controller();
  5577  092F  120A  158A  24A1  120A  158A  	fcall	_init_display_controller
  5578  0934                     l136:
  5579  0934  0008               	return
  5580  0935                     __end_of_init_clcd:
  5581                           
  5582                           	psect	text20
  5583  0CA1                     __ptext20:	
  5584 ;; *************** function _init_display_controller *****************
  5585 ;; Defined at:
  5586 ;;		line 24 in file "C:/Users/Shreesh Kulkarni/OneDrive/Desktop/Shreesh/Car_Black_Box.X/clcd.c"
  5587 ;; Parameters:    Size  Location     Type
  5588 ;;		None
  5589 ;; Auto vars:     Size  Location     Type
  5590 ;;		None
  5591 ;; Return value:  Size  Location     Type
  5592 ;;                  1    wreg      void 
  5593 ;; Registers used:
  5594 ;;		wreg, status,2, status,0, pclath, cstack
  5595 ;; Tracked objects:
  5596 ;;		On entry : 0/0
  5597 ;;		On exit  : 0/0
  5598 ;;		Unchanged: 0/0
  5599 ;; Data sizes:     COMMON   BANK0   BANK1   BANK3   BANK2
  5600 ;;      Params:         0       0       0       0       0
  5601 ;;      Locals:         0       0       0       0       0
  5602 ;;      Temps:          2       0       0       0       0
  5603 ;;      Totals:         2       0       0       0       0
  5604 ;;Total ram usage:        2 bytes
  5605 ;; Hardware stack levels used: 1
  5606 ;; Hardware stack levels required when called: 2
  5607 ;; This function calls:
  5608 ;;		_clcd_write
  5609 ;; This function is called by:
  5610 ;;		_init_clcd
  5611 ;; This function uses a non-reentrant model
  5612 ;;
  5613                           
  5614  0CA1                     _init_display_controller:	
  5615                           ;psect for function _init_display_controller
  5616                           
  5617  0CA1                     l3204:	
  5618                           ;incstack = 0
  5619                           ; Regs used in _init_display_controller: [wreg+status,2+status,0+pclath+cstack]
  5620                           
  5621                           
  5622                           ;C:/Users/Shreesh Kulkarni/OneDrive/Desktop/Shreesh/Car_Black_Box.X/clcd.c: 27:     _del
      +                          ay((unsigned long)((30)*(20000000/4000.0)));
  5623  0CA1  30C3               	movlw	195
  5624  0CA2  00F7               	movwf	??_init_display_controller+1
  5625  0CA3  30CD               	movlw	205
  5626  0CA4  00F6               	movwf	??_init_display_controller
  5627  0CA5                     u3127:
  5628  0CA5  0BF6               	decfsz	??_init_display_controller,f
  5629  0CA6  2CA5               	goto	u3127
  5630  0CA7  0BF7               	decfsz	??_init_display_controller+1,f
  5631  0CA8  2CA5               	goto	u3127
  5632  0CA9                     l3206:
  5633                           
  5634                           ;C:/Users/Shreesh Kulkarni/OneDrive/Desktop/Shreesh/Car_Black_Box.X/clcd.c: 30:     clcd
      +                          _write(0x33, 0);
  5635  0CA9  01F2               	clrf	clcd_write@mode
  5636  0CAA  3033               	movlw	51
  5637  0CAB  120A  118A  27DF  120A  158A  	fcall	_clcd_write
  5638  0CB0                     l3208:
  5639                           
  5640                           ;C:/Users/Shreesh Kulkarni/OneDrive/Desktop/Shreesh/Car_Black_Box.X/clcd.c: 31:      _de
      +                          lay((unsigned long)((4100)*(20000000/4000000.0)));
  5641  0CB0  301B               	movlw	27
  5642  0CB1  00F7               	movwf	??_init_display_controller+1
  5643  0CB2  309E               	movlw	158
  5644  0CB3  00F6               	movwf	??_init_display_controller
  5645  0CB4                     u3137:
  5646  0CB4  0BF6               	decfsz	??_init_display_controller,f
  5647  0CB5  2CB4               	goto	u3137
  5648  0CB6  0BF7               	decfsz	??_init_display_controller+1,f
  5649  0CB7  2CB4               	goto	u3137
  5650  0CB8  0000               	nop
  5651                           
  5652                           ;C:/Users/Shreesh Kulkarni/OneDrive/Desktop/Shreesh/Car_Black_Box.X/clcd.c: 32:      clc
      +                          d_write(0x33, 0);
  5653  0CB9  01F2               	clrf	clcd_write@mode
  5654  0CBA  3033               	movlw	51
  5655  0CBB  120A  118A  27DF  120A  158A  	fcall	_clcd_write
  5656  0CC0                     l3210:
  5657                           
  5658                           ;C:/Users/Shreesh Kulkarni/OneDrive/Desktop/Shreesh/Car_Black_Box.X/clcd.c: 33:     _del
      +                          ay((unsigned long)((100)*(20000000/4000000.0)));
  5659  0CC0  30A6               	movlw	166
  5660  0CC1  00F6               	movwf	??_init_display_controller
  5661  0CC2                     u3147:
  5662  0CC2  0BF6               	decfsz	??_init_display_controller,f
  5663  0CC3  2CC2               	goto	u3147
  5664  0CC4  0000               	nop
  5665  0CC5                     l3212:
  5666                           
  5667                           ;C:/Users/Shreesh Kulkarni/OneDrive/Desktop/Shreesh/Car_Black_Box.X/clcd.c: 34:      clc
      +                          d_write(0x33, 0);
  5668  0CC5  01F2               	clrf	clcd_write@mode
  5669  0CC6  3033               	movlw	51
  5670  0CC7  120A  118A  27DF  120A  158A  	fcall	_clcd_write
  5671  0CCC                     l3214:
  5672                           
  5673                           ;C:/Users/Shreesh Kulkarni/OneDrive/Desktop/Shreesh/Car_Black_Box.X/clcd.c: 35:      _de
      +                          lay((unsigned long)((1)*(20000000/4000000.0)));
  5674  0CCC  2CCD               	nop2	;2 cycle nop
  5675  0CCD  2CCE               	nop2	;2 cycle nop
  5676  0CCE  0000               	nop
  5677  0CCF                     l3216:
  5678                           
  5679                           ;C:/Users/Shreesh Kulkarni/OneDrive/Desktop/Shreesh/Car_Black_Box.X/clcd.c: 37:     clcd
      +                          _write(0x38, 0);
  5680  0CCF  01F2               	clrf	clcd_write@mode
  5681  0CD0  3038               	movlw	56
  5682  0CD1  120A  118A  27DF  120A  158A  	fcall	_clcd_write
  5683  0CD6                     l3218:
  5684                           
  5685                           ;C:/Users/Shreesh Kulkarni/OneDrive/Desktop/Shreesh/Car_Black_Box.X/clcd.c: 38:      _de
      +                          lay((unsigned long)((100)*(20000000/4000000.0)));
  5686  0CD6  30A6               	movlw	166
  5687  0CD7  00F6               	movwf	??_init_display_controller
  5688  0CD8                     u3157:
  5689  0CD8  0BF6               	decfsz	??_init_display_controller,f
  5690  0CD9  2CD8               	goto	u3157
  5691  0CDA  0000               	nop
  5692                           
  5693                           ;C:/Users/Shreesh Kulkarni/OneDrive/Desktop/Shreesh/Car_Black_Box.X/clcd.c: 40:      clc
      +                          d_write(0x01, 0);
  5694  0CDB  01F2               	clrf	clcd_write@mode
  5695  0CDC  3001               	movlw	1
  5696  0CDD  120A  118A  27DF  120A  158A  	fcall	_clcd_write
  5697  0CE2                     l3220:
  5698                           
  5699                           ;C:/Users/Shreesh Kulkarni/OneDrive/Desktop/Shreesh/Car_Black_Box.X/clcd.c: 41:     _del
      +                          ay((unsigned long)((100)*(20000000/4000000.0)));
  5700  0CE2  30A6               	movlw	166
  5701  0CE3  00F6               	movwf	??_init_display_controller
  5702  0CE4                     u3167:
  5703  0CE4  0BF6               	decfsz	??_init_display_controller,f
  5704  0CE5  2CE4               	goto	u3167
  5705  0CE6  0000               	nop
  5706  0CE7                     l3222:
  5707                           
  5708                           ;C:/Users/Shreesh Kulkarni/OneDrive/Desktop/Shreesh/Car_Black_Box.X/clcd.c: 43:     clcd
      +                          _write(0x0C, 0);
  5709  0CE7  01F2               	clrf	clcd_write@mode
  5710  0CE8  300C               	movlw	12
  5711  0CE9  120A  118A  27DF  120A  158A  	fcall	_clcd_write
  5712                           
  5713                           ;C:/Users/Shreesh Kulkarni/OneDrive/Desktop/Shreesh/Car_Black_Box.X/clcd.c: 44:     _del
      +                          ay((unsigned long)((100)*(20000000/4000000.0)));
  5714  0CEE  30A6               	movlw	166
  5715  0CEF  00F6               	movwf	??_init_display_controller
  5716  0CF0                     u3177:
  5717  0CF0  0BF6               	decfsz	??_init_display_controller,f
  5718  0CF1  2CF0               	goto	u3177
  5719  0CF2  0000               	nop
  5720  0CF3                     l133:
  5721  0CF3  0008               	return
  5722  0CF4                     __end_of_init_display_controller:
  5723                           
  5724                           	psect	text21
  5725  17BF                     __ptext21:	
  5726 ;; *************** function _init_adc *****************
  5727 ;; Defined at:
  5728 ;;		line 10 in file "C:/Users/Shreesh Kulkarni/OneDrive/Desktop/Shreesh/Car_Black_Box.X/adc.c"
  5729 ;; Parameters:    Size  Location     Type
  5730 ;;		None
  5731 ;; Auto vars:     Size  Location     Type
  5732 ;;		None
  5733 ;; Return value:  Size  Location     Type
  5734 ;;                  1    wreg      void 
  5735 ;; Registers used:
  5736 ;;		None
  5737 ;; Tracked objects:
  5738 ;;		On entry : 0/0
  5739 ;;		On exit  : 0/0
  5740 ;;		Unchanged: 0/0
  5741 ;; Data sizes:     COMMON   BANK0   BANK1   BANK3   BANK2
  5742 ;;      Params:         0       0       0       0       0
  5743 ;;      Locals:         0       0       0       0       0
  5744 ;;      Temps:          0       0       0       0       0
  5745 ;;      Totals:         0       0       0       0       0
  5746 ;;Total ram usage:        0 bytes
  5747 ;; Hardware stack levels used: 1
  5748 ;; Hardware stack levels required when called: 1
  5749 ;; This function calls:
  5750 ;;		Nothing
  5751 ;; This function is called by:
  5752 ;;		_init_config
  5753 ;; This function uses a non-reentrant model
  5754 ;;
  5755                           
  5756  17BF                     _init_adc:	
  5757                           ;psect for function _init_adc
  5758                           
  5759  17BF                     l2254:	
  5760                           ;incstack = 0
  5761                           ; Regs used in _init_adc: []
  5762                           
  5763                           
  5764                           ;C:/Users/Shreesh Kulkarni/OneDrive/Desktop/Shreesh/Car_Black_Box.X/adc.c: 13:     ADFM 
      +                          = 1;
  5765  17BF  1683               	bsf	3,5	;RP0=1, select bank1
  5766  17C0  1303               	bcf	3,6	;RP1=0, select bank1
  5767  17C1  179F               	bsf	31,7	;volatile
  5768                           
  5769                           ;C:/Users/Shreesh Kulkarni/OneDrive/Desktop/Shreesh/Car_Black_Box.X/adc.c: 16:     ADON 
      +                          = 1;
  5770  17C2  1283               	bcf	3,5	;RP0=0, select bank0
  5771  17C3  1303               	bcf	3,6	;RP1=0, select bank0
  5772  17C4  141F               	bsf	31,0	;volatile
  5773  17C5                     l32:
  5774  17C5  0008               	return
  5775  17C6                     __end_of_init_adc:
  5776                           
  5777                           	psect	text22
  5778  0E04                     __ptext22:	
  5779 ;; *************** function _display_dash_board *****************
  5780 ;; Defined at:
  5781 ;;		line 46 in file "C:/Users/Shreesh Kulkarni/OneDrive/Desktop/Shreesh/Car_Black_Box.X/car_black_box_def.c"
  5782 ;; Parameters:    Size  Location     Type
  5783 ;;  event           1    wreg     PTR unsigned char 
  5784 ;;		 -> main@event(3), 
  5785 ;;  speed           1    7[BANK0 ] unsigned char 
  5786 ;; Auto vars:     Size  Location     Type
  5787 ;;  event           1   11[BANK0 ] PTR unsigned char 
  5788 ;;		 -> main@event(3), 
  5789 ;; Return value:  Size  Location     Type
  5790 ;;                  1    wreg      void 
  5791 ;; Registers used:
  5792 ;;		wreg, fsr0l, fsr0h, status,2, status,0, btemp+1, pclath, cstack
  5793 ;; Tracked objects:
  5794 ;;		On entry : 0/0
  5795 ;;		On exit  : 0/0
  5796 ;;		Unchanged: 0/0
  5797 ;; Data sizes:     COMMON   BANK0   BANK1   BANK3   BANK2
  5798 ;;      Params:         0       1       0       0       0
  5799 ;;      Locals:         0       1       0       0       0
  5800 ;;      Temps:          0       3       0       0       0
  5801 ;;      Totals:         0       5       0       0       0
  5802 ;;Total ram usage:        5 bytes
  5803 ;; Hardware stack levels used: 1
  5804 ;; Hardware stack levels required when called: 7
  5805 ;; This function calls:
  5806 ;;		___awdiv
  5807 ;;		___awmod
  5808 ;;		_clcd_print
  5809 ;;		_clcd_putch
  5810 ;;		_display_time
  5811 ;; This function is called by:
  5812 ;;		_main
  5813 ;; This function uses a non-reentrant model
  5814 ;;
  5815                           
  5816  0E04                     _display_dash_board:	
  5817                           ;psect for function _display_dash_board
  5818                           
  5819                           
  5820                           ;incstack = 0
  5821                           ; Regs used in _display_dash_board: [wreg-fsr0h+status,2+status,0+btemp+1+pclath+cstack]
  5822                           ;display_dash_board@event stored from wreg
  5823  0E04  1283               	bcf	3,5	;RP0=0, select bank0
  5824  0E05  1303               	bcf	3,6	;RP1=0, select bank0
  5825  0E06  00AB               	movwf	display_dash_board@event
  5826  0E07                     l3322:
  5827                           
  5828                           ;C:/Users/Shreesh Kulkarni/OneDrive/Desktop/Shreesh/Car_Black_Box.X/car_black_box_def.c:
      +                           47:     clcd_print("  TIME     E  SP",(0x80 + 0));
  5829  0E07  3013               	movlw	low (STR_15| (0+32768))
  5830  0E08  00F6               	movwf	clcd_print@str
  5831  0E09  3088               	movlw	high (STR_15| (0+32768))
  5832  0E0A  00F7               	movwf	clcd_print@str+1
  5833  0E0B  3080               	movlw	128
  5834  0E0C  00A8               	movwf	??_display_dash_board
  5835  0E0D  0828               	movf	??_display_dash_board,w
  5836  0E0E  00F8               	movwf	clcd_print@addr
  5837  0E0F  120A  158A  2300  120A  158A  	fcall	_clcd_print
  5838  0E14                     l3324:
  5839                           
  5840                           ;C:/Users/Shreesh Kulkarni/OneDrive/Desktop/Shreesh/Car_Black_Box.X/car_black_box_def.c:
      +                           49:     display_time();
  5841  0E14  120A  158A  2663  120A  158A  	fcall	_display_time
  5842  0E19                     l3326:
  5843                           
  5844                           ;C:/Users/Shreesh Kulkarni/OneDrive/Desktop/Shreesh/Car_Black_Box.X/car_black_box_def.c:
      +                           51:     clcd_print(event, (0xC0 + 11));
  5845  0E19  1283               	bcf	3,5	;RP0=0, select bank0
  5846  0E1A  1303               	bcf	3,6	;RP1=0, select bank0
  5847  0E1B  082B               	movf	display_dash_board@event,w
  5848  0E1C  00F6               	movwf	clcd_print@str
  5849  0E1D  3000               	movlw	0
  5850  0E1E  00F7               	movwf	clcd_print@str+1
  5851  0E1F  30CB               	movlw	203
  5852  0E20  00A8               	movwf	??_display_dash_board
  5853  0E21  0828               	movf	??_display_dash_board,w
  5854  0E22  00F8               	movwf	clcd_print@addr
  5855  0E23  120A  158A  2300  120A  158A  	fcall	_clcd_print
  5856                           
  5857                           ;C:/Users/Shreesh Kulkarni/OneDrive/Desktop/Shreesh/Car_Black_Box.X/car_black_box_def.c:
      +                           53:     clcd_putch((speed/10)+'0',(0xC0 + 14));
  5858  0E28  30CE               	movlw	206
  5859  0E29  1283               	bcf	3,5	;RP0=0, select bank0
  5860  0E2A  1303               	bcf	3,6	;RP1=0, select bank0
  5861  0E2B  00A8               	movwf	??_display_dash_board
  5862  0E2C  0828               	movf	??_display_dash_board,w
  5863  0E2D  00A4               	movwf	clcd_putch@addr
  5864  0E2E  300A               	movlw	10
  5865  0E2F  00F2               	movwf	___awdiv@divisor
  5866  0E30  3000               	movlw	0
  5867  0E31  00F3               	movwf	___awdiv@divisor+1
  5868  0E32  0827               	movf	display_dash_board@speed,w
  5869  0E33  00A9               	movwf	??_display_dash_board+1
  5870  0E34  01AA               	clrf	??_display_dash_board+2
  5871  0E35  0829               	movf	??_display_dash_board+1,w
  5872  0E36  00F4               	movwf	___awdiv@dividend
  5873  0E37  082A               	movf	??_display_dash_board+2,w
  5874  0E38  00F5               	movwf	___awdiv@dividend+1
  5875  0E39  120A  158A  2797  120A  158A  	fcall	___awdiv
  5876  0E3E  0872               	movf	?___awdiv,w
  5877  0E3F  3E30               	addlw	48
  5878  0E40  120A  158A  218D  120A  158A  	fcall	_clcd_putch
  5879                           
  5880                           ;C:/Users/Shreesh Kulkarni/OneDrive/Desktop/Shreesh/Car_Black_Box.X/car_black_box_def.c:
      +                           54:     clcd_putch((speed%10)+'0',(0xC0 + 15));
  5881  0E45  30CF               	movlw	207
  5882  0E46  1283               	bcf	3,5	;RP0=0, select bank0
  5883  0E47  1303               	bcf	3,6	;RP1=0, select bank0
  5884  0E48  00A8               	movwf	??_display_dash_board
  5885  0E49  0828               	movf	??_display_dash_board,w
  5886  0E4A  00A4               	movwf	clcd_putch@addr
  5887  0E4B  300A               	movlw	10
  5888  0E4C  00F2               	movwf	___awmod@divisor
  5889  0E4D  3000               	movlw	0
  5890  0E4E  00F3               	movwf	___awmod@divisor+1
  5891  0E4F  0827               	movf	display_dash_board@speed,w
  5892  0E50  00A9               	movwf	??_display_dash_board+1
  5893  0E51  01AA               	clrf	??_display_dash_board+2
  5894  0E52  0829               	movf	??_display_dash_board+1,w
  5895  0E53  00F4               	movwf	___awmod@dividend
  5896  0E54  082A               	movf	??_display_dash_board+2,w
  5897  0E55  00F5               	movwf	___awmod@dividend+1
  5898  0E56  120A  158A  254C  120A  158A  	fcall	___awmod
  5899  0E5B  0872               	movf	?___awmod,w
  5900  0E5C  3E30               	addlw	48
  5901  0E5D  120A  158A  218D  120A  158A  	fcall	_clcd_putch
  5902  0E62                     l287:
  5903  0E62  0008               	return
  5904  0E63                     __end_of_display_dash_board:
  5905                           
  5906                           	psect	text23
  5907  0E63                     __ptext23:	
  5908 ;; *************** function _display_time *****************
  5909 ;; Defined at:
  5910 ;;		line 32 in file "C:/Users/Shreesh Kulkarni/OneDrive/Desktop/Shreesh/Car_Black_Box.X/car_black_box_def.c"
  5911 ;; Parameters:    Size  Location     Type
  5912 ;;		None
  5913 ;; Auto vars:     Size  Location     Type
  5914 ;;		None
  5915 ;; Return value:  Size  Location     Type
  5916 ;;                  1    wreg      void 
  5917 ;; Registers used:
  5918 ;;		wreg, status,2, status,0, pclath, cstack
  5919 ;; Tracked objects:
  5920 ;;		On entry : 0/0
  5921 ;;		On exit  : 0/0
  5922 ;;		Unchanged: 0/0
  5923 ;; Data sizes:     COMMON   BANK0   BANK1   BANK3   BANK2
  5924 ;;      Params:         0       0       0       0       0
  5925 ;;      Locals:         0       0       0       0       0
  5926 ;;      Temps:          0       1       0       0       0
  5927 ;;      Totals:         0       1       0       0       0
  5928 ;;Total ram usage:        1 bytes
  5929 ;; Hardware stack levels used: 1
  5930 ;; Hardware stack levels required when called: 6
  5931 ;; This function calls:
  5932 ;;		_clcd_putch
  5933 ;;		_get_time
  5934 ;; This function is called by:
  5935 ;;		_display_dash_board
  5936 ;; This function uses a non-reentrant model
  5937 ;;
  5938                           
  5939  0E63                     _display_time:	
  5940                           ;psect for function _display_time
  5941                           
  5942  0E63                     l3298:	
  5943                           ;incstack = 0
  5944                           ; Regs used in _display_time: [wreg+status,2+status,0+pclath+cstack]
  5945                           
  5946                           
  5947                           ;C:/Users/Shreesh Kulkarni/OneDrive/Desktop/Shreesh/Car_Black_Box.X/car_black_box_def.c:
      +                           34:     get_time();
  5948  0E63  120A  158A  25A5  120A  158A  	fcall	_get_time
  5949                           
  5950                           ;C:/Users/Shreesh Kulkarni/OneDrive/Desktop/Shreesh/Car_Black_Box.X/car_black_box_def.c:
      +                           36:     clcd_putch(time[0],(0xC0 + 2));
  5951  0E68  30C2               	movlw	194
  5952  0E69  1283               	bcf	3,5	;RP0=0, select bank0
  5953  0E6A  1303               	bcf	3,6	;RP1=0, select bank0
  5954  0E6B  00A6               	movwf	??_display_time
  5955  0E6C  0826               	movf	??_display_time,w
  5956  0E6D  00A4               	movwf	clcd_putch@addr
  5957  0E6E  0856               	movf	_time,w
  5958  0E6F  120A  158A  218D  120A  158A  	fcall	_clcd_putch
  5959                           
  5960                           ;C:/Users/Shreesh Kulkarni/OneDrive/Desktop/Shreesh/Car_Black_Box.X/car_black_box_def.c:
      +                           37:     clcd_putch(time[1],(0xC0 + 3));
  5961  0E74  30C3               	movlw	195
  5962  0E75  1283               	bcf	3,5	;RP0=0, select bank0
  5963  0E76  1303               	bcf	3,6	;RP1=0, select bank0
  5964  0E77  00A6               	movwf	??_display_time
  5965  0E78  0826               	movf	??_display_time,w
  5966  0E79  00A4               	movwf	clcd_putch@addr
  5967  0E7A  0857               	movf	_time+1,w
  5968  0E7B  120A  158A  218D  120A  158A  	fcall	_clcd_putch
  5969                           
  5970                           ;C:/Users/Shreesh Kulkarni/OneDrive/Desktop/Shreesh/Car_Black_Box.X/car_black_box_def.c:
      +                           38:     clcd_putch(':',(0xC0 + 4));
  5971  0E80  30C4               	movlw	196
  5972  0E81  1283               	bcf	3,5	;RP0=0, select bank0
  5973  0E82  1303               	bcf	3,6	;RP1=0, select bank0
  5974  0E83  00A6               	movwf	??_display_time
  5975  0E84  0826               	movf	??_display_time,w
  5976  0E85  00A4               	movwf	clcd_putch@addr
  5977  0E86  303A               	movlw	58
  5978  0E87  120A  158A  218D  120A  158A  	fcall	_clcd_putch
  5979                           
  5980                           ;C:/Users/Shreesh Kulkarni/OneDrive/Desktop/Shreesh/Car_Black_Box.X/car_black_box_def.c:
      +                           39:     clcd_putch(time[2],(0xC0 + 5));
  5981  0E8C  30C5               	movlw	197
  5982  0E8D  1283               	bcf	3,5	;RP0=0, select bank0
  5983  0E8E  1303               	bcf	3,6	;RP1=0, select bank0
  5984  0E8F  00A6               	movwf	??_display_time
  5985  0E90  0826               	movf	??_display_time,w
  5986  0E91  00A4               	movwf	clcd_putch@addr
  5987  0E92  0858               	movf	_time+2,w
  5988  0E93  120A  158A  218D  120A  158A  	fcall	_clcd_putch
  5989                           
  5990                           ;C:/Users/Shreesh Kulkarni/OneDrive/Desktop/Shreesh/Car_Black_Box.X/car_black_box_def.c:
      +                           40:     clcd_putch(time[3],(0xC0 + 6));
  5991  0E98  30C6               	movlw	198
  5992  0E99  1283               	bcf	3,5	;RP0=0, select bank0
  5993  0E9A  1303               	bcf	3,6	;RP1=0, select bank0
  5994  0E9B  00A6               	movwf	??_display_time
  5995  0E9C  0826               	movf	??_display_time,w
  5996  0E9D  00A4               	movwf	clcd_putch@addr
  5997  0E9E  0859               	movf	_time+3,w
  5998  0E9F  120A  158A  218D  120A  158A  	fcall	_clcd_putch
  5999                           
  6000                           ;C:/Users/Shreesh Kulkarni/OneDrive/Desktop/Shreesh/Car_Black_Box.X/car_black_box_def.c:
      +                           41:     clcd_putch(':',(0xC0 + 7));
  6001  0EA4  30C7               	movlw	199
  6002  0EA5  1283               	bcf	3,5	;RP0=0, select bank0
  6003  0EA6  1303               	bcf	3,6	;RP1=0, select bank0
  6004  0EA7  00A6               	movwf	??_display_time
  6005  0EA8  0826               	movf	??_display_time,w
  6006  0EA9  00A4               	movwf	clcd_putch@addr
  6007  0EAA  303A               	movlw	58
  6008  0EAB  120A  158A  218D  120A  158A  	fcall	_clcd_putch
  6009                           
  6010                           ;C:/Users/Shreesh Kulkarni/OneDrive/Desktop/Shreesh/Car_Black_Box.X/car_black_box_def.c:
      +                           42:     clcd_putch(time[4],(0xC0 + 8));
  6011  0EB0  30C8               	movlw	200
  6012  0EB1  1283               	bcf	3,5	;RP0=0, select bank0
  6013  0EB2  1303               	bcf	3,6	;RP1=0, select bank0
  6014  0EB3  00A6               	movwf	??_display_time
  6015  0EB4  0826               	movf	??_display_time,w
  6016  0EB5  00A4               	movwf	clcd_putch@addr
  6017  0EB6  085A               	movf	_time+4,w
  6018  0EB7  120A  158A  218D  120A  158A  	fcall	_clcd_putch
  6019                           
  6020                           ;C:/Users/Shreesh Kulkarni/OneDrive/Desktop/Shreesh/Car_Black_Box.X/car_black_box_def.c:
      +                           43:     clcd_putch(time[5],(0xC0 + 9));
  6021  0EBC  30C9               	movlw	201
  6022  0EBD  1283               	bcf	3,5	;RP0=0, select bank0
  6023  0EBE  1303               	bcf	3,6	;RP1=0, select bank0
  6024  0EBF  00A6               	movwf	??_display_time
  6025  0EC0  0826               	movf	??_display_time,w
  6026  0EC1  00A4               	movwf	clcd_putch@addr
  6027  0EC2  085B               	movf	_time+5,w
  6028  0EC3  120A  158A  218D  120A  158A  	fcall	_clcd_putch
  6029  0EC8                     l284:
  6030  0EC8  0008               	return
  6031  0EC9                     __end_of_display_time:
  6032                           
  6033                           	psect	text24
  6034  0DA5                     __ptext24:	
  6035 ;; *************** function _get_time *****************
  6036 ;; Defined at:
  6037 ;;		line 17 in file "C:/Users/Shreesh Kulkarni/OneDrive/Desktop/Shreesh/Car_Black_Box.X/car_black_box_def.c"
  6038 ;; Parameters:    Size  Location     Type
  6039 ;;		None
  6040 ;; Auto vars:     Size  Location     Type
  6041 ;;		None
  6042 ;; Return value:  Size  Location     Type
  6043 ;;                  1    wreg      void 
  6044 ;; Registers used:
  6045 ;;		wreg, status,2, status,0, pclath, cstack
  6046 ;; Tracked objects:
  6047 ;;		On entry : 0/0
  6048 ;;		On exit  : 0/0
  6049 ;;		Unchanged: 0/0
  6050 ;; Data sizes:     COMMON   BANK0   BANK1   BANK3   BANK2
  6051 ;;      Params:         0       0       0       0       0
  6052 ;;      Locals:         0       0       0       0       0
  6053 ;;      Temps:          0       2       0       0       0
  6054 ;;      Totals:         0       2       0       0       0
  6055 ;;Total ram usage:        2 bytes
  6056 ;; Hardware stack levels used: 1
  6057 ;; Hardware stack levels required when called: 5
  6058 ;; This function calls:
  6059 ;;		_read_ds1307
  6060 ;; This function is called by:
  6061 ;;		_display_time
  6062 ;;		_log_car_event
  6063 ;; This function uses a non-reentrant model
  6064 ;;
  6065                           
  6066  0DA5                     _get_time:	
  6067                           ;psect for function _get_time
  6068                           
  6069  0DA5                     l3226:	
  6070                           ;incstack = 0
  6071                           ; Regs used in _get_time: [wreg+status,2+status,0+pclath+cstack]
  6072                           
  6073                           
  6074                           ;C:/Users/Shreesh Kulkarni/OneDrive/Desktop/Shreesh/Car_Black_Box.X/car_black_box_def.c:
      +                           18:     clock_reg[0] = read_ds1307(0x02);
  6075  0DA5  3002               	movlw	2
  6076  0DA6  120A  158A  22D3  120A  158A  	fcall	_read_ds1307
  6077  0DAB  1283               	bcf	3,5	;RP0=0, select bank0
  6078  0DAC  1303               	bcf	3,6	;RP1=0, select bank0
  6079  0DAD  00A0               	movwf	??_get_time
  6080  0DAE  0820               	movf	??_get_time,w
  6081  0DAF  00C7               	movwf	_clock_reg
  6082                           
  6083                           ;C:/Users/Shreesh Kulkarni/OneDrive/Desktop/Shreesh/Car_Black_Box.X/car_black_box_def.c:
      +                           19:     clock_reg[1] = read_ds1307(0x01);
  6084  0DB0  3001               	movlw	1
  6085  0DB1  120A  158A  22D3  120A  158A  	fcall	_read_ds1307
  6086  0DB6  1283               	bcf	3,5	;RP0=0, select bank0
  6087  0DB7  1303               	bcf	3,6	;RP1=0, select bank0
  6088  0DB8  00A0               	movwf	??_get_time
  6089  0DB9  0820               	movf	??_get_time,w
  6090  0DBA  00C8               	movwf	_clock_reg+1
  6091                           
  6092                           ;C:/Users/Shreesh Kulkarni/OneDrive/Desktop/Shreesh/Car_Black_Box.X/car_black_box_def.c:
      +                           20:     clock_reg[2] = read_ds1307(0x00);
  6093  0DBB  3000               	movlw	0
  6094  0DBC  120A  158A  22D3  120A  158A  	fcall	_read_ds1307
  6095  0DC1  1283               	bcf	3,5	;RP0=0, select bank0
  6096  0DC2  1303               	bcf	3,6	;RP1=0, select bank0
  6097  0DC3  00A0               	movwf	??_get_time
  6098  0DC4  0820               	movf	??_get_time,w
  6099  0DC5  00C9               	movwf	_clock_reg+2
  6100  0DC6                     l3228:
  6101                           
  6102                           ;C:/Users/Shreesh Kulkarni/OneDrive/Desktop/Shreesh/Car_Black_Box.X/car_black_box_def.c:
      +                           22:     time[0] = ((clock_reg[0] >> 4) & 0x03) + '0';
  6103  0DC6  0847               	movf	_clock_reg,w
  6104  0DC7  00A0               	movwf	??_get_time
  6105  0DC8  3004               	movlw	4
  6106  0DC9                     u2375:
  6107  0DC9  1003               	clrc
  6108  0DCA  0CA0               	rrf	??_get_time,f
  6109  0DCB  3EFF               	addlw	-1
  6110  0DCC  1D03               	skipz
  6111  0DCD  2DC9               	goto	u2375
  6112  0DCE  0820               	movf	??_get_time,w
  6113  0DCF  3903               	andlw	3
  6114  0DD0  3E30               	addlw	48
  6115  0DD1  00A1               	movwf	??_get_time+1
  6116  0DD2  0821               	movf	??_get_time+1,w
  6117  0DD3  00D6               	movwf	_time
  6118  0DD4                     l3230:
  6119                           
  6120                           ;C:/Users/Shreesh Kulkarni/OneDrive/Desktop/Shreesh/Car_Black_Box.X/car_black_box_def.c:
      +                           23:     time[1] = (clock_reg[0] & 0x0F) + '0';
  6121  0DD4  0847               	movf	_clock_reg,w
  6122  0DD5  390F               	andlw	15
  6123  0DD6  3E30               	addlw	48
  6124  0DD7  00A0               	movwf	??_get_time
  6125  0DD8  0820               	movf	??_get_time,w
  6126  0DD9  00D7               	movwf	_time+1
  6127  0DDA                     l3232:
  6128                           
  6129                           ;C:/Users/Shreesh Kulkarni/OneDrive/Desktop/Shreesh/Car_Black_Box.X/car_black_box_def.c:
      +                           25:     time[2] = ((clock_reg[1] >> 4) & 0x07) + '0';
  6130  0DDA  0848               	movf	_clock_reg+1,w
  6131  0DDB  00A0               	movwf	??_get_time
  6132  0DDC  3004               	movlw	4
  6133  0DDD                     u2385:
  6134  0DDD  1003               	clrc
  6135  0DDE  0CA0               	rrf	??_get_time,f
  6136  0DDF  3EFF               	addlw	-1
  6137  0DE0  1D03               	skipz
  6138  0DE1  2DDD               	goto	u2385
  6139  0DE2  0820               	movf	??_get_time,w
  6140  0DE3  3907               	andlw	7
  6141  0DE4  3E30               	addlw	48
  6142  0DE5  00A1               	movwf	??_get_time+1
  6143  0DE6  0821               	movf	??_get_time+1,w
  6144  0DE7  00D8               	movwf	_time+2
  6145  0DE8                     l3234:
  6146                           
  6147                           ;C:/Users/Shreesh Kulkarni/OneDrive/Desktop/Shreesh/Car_Black_Box.X/car_black_box_def.c:
      +                           26:     time[3] = (clock_reg[1] & 0x0F) + '0';
  6148  0DE8  0848               	movf	_clock_reg+1,w
  6149  0DE9  390F               	andlw	15
  6150  0DEA  3E30               	addlw	48
  6151  0DEB  00A0               	movwf	??_get_time
  6152  0DEC  0820               	movf	??_get_time,w
  6153  0DED  00D9               	movwf	_time+3
  6154  0DEE                     l3236:
  6155                           
  6156                           ;C:/Users/Shreesh Kulkarni/OneDrive/Desktop/Shreesh/Car_Black_Box.X/car_black_box_def.c:
      +                           28:     time[4] = ((clock_reg[2] >> 4) & 0x07) + '0';
  6157  0DEE  0849               	movf	_clock_reg+2,w
  6158  0DEF  00A0               	movwf	??_get_time
  6159  0DF0  3004               	movlw	4
  6160  0DF1                     u2395:
  6161  0DF1  1003               	clrc
  6162  0DF2  0CA0               	rrf	??_get_time,f
  6163  0DF3  3EFF               	addlw	-1
  6164  0DF4  1D03               	skipz
  6165  0DF5  2DF1               	goto	u2395
  6166  0DF6  0820               	movf	??_get_time,w
  6167  0DF7  3907               	andlw	7
  6168  0DF8  3E30               	addlw	48
  6169  0DF9  00A1               	movwf	??_get_time+1
  6170  0DFA  0821               	movf	??_get_time+1,w
  6171  0DFB  00DA               	movwf	_time+4
  6172  0DFC                     l3238:
  6173                           
  6174                           ;C:/Users/Shreesh Kulkarni/OneDrive/Desktop/Shreesh/Car_Black_Box.X/car_black_box_def.c:
      +                           29:     time[5] = (clock_reg[2] & 0x0F) + '0';
  6175  0DFC  0849               	movf	_clock_reg+2,w
  6176  0DFD  390F               	andlw	15
  6177  0DFE  3E30               	addlw	48
  6178  0DFF  00A0               	movwf	??_get_time
  6179  0E00  0820               	movf	??_get_time,w
  6180  0E01  00DB               	movwf	_time+5
  6181  0E02                     l3240:
  6182                           
  6183                           ;C:/Users/Shreesh Kulkarni/OneDrive/Desktop/Shreesh/Car_Black_Box.X/car_black_box_def.c:
      +                           30:     time[6] = '\0';
  6184  0E02  01DC               	clrf	_time+6
  6185  0E03                     l281:
  6186  0E03  0008               	return
  6187  0E04                     __end_of_get_time:
  6188                           
  6189                           	psect	text25
  6190  0AD3                     __ptext25:	
  6191 ;; *************** function _read_ds1307 *****************
  6192 ;; Defined at:
  6193 ;;		line 22 in file "C:/Users/Shreesh Kulkarni/OneDrive/Desktop/Shreesh/Car_Black_Box.X/ds1307.c"
  6194 ;; Parameters:    Size  Location     Type
  6195 ;;  addr            1    wreg     unsigned char 
  6196 ;; Auto vars:     Size  Location     Type
  6197 ;;  addr            1    6[COMMON] unsigned char 
  6198 ;;  data            1    7[COMMON] unsigned char 
  6199 ;; Return value:  Size  Location     Type
  6200 ;;                  1    wreg      unsigned char 
  6201 ;; Registers used:
  6202 ;;		wreg, status,2, status,0, pclath, cstack
  6203 ;; Tracked objects:
  6204 ;;		On entry : 0/0
  6205 ;;		On exit  : 0/0
  6206 ;;		Unchanged: 0/0
  6207 ;; Data sizes:     COMMON   BANK0   BANK1   BANK3   BANK2
  6208 ;;      Params:         0       0       0       0       0
  6209 ;;      Locals:         2       0       0       0       0
  6210 ;;      Temps:          1       0       0       0       0
  6211 ;;      Totals:         3       0       0       0       0
  6212 ;;Total ram usage:        3 bytes
  6213 ;; Hardware stack levels used: 1
  6214 ;; Hardware stack levels required when called: 4
  6215 ;; This function calls:
  6216 ;;		_i2c_read
  6217 ;;		_i2c_rep_start
  6218 ;;		_i2c_start
  6219 ;;		_i2c_stop
  6220 ;;		_i2c_write
  6221 ;; This function is called by:
  6222 ;;		_init_ds1307
  6223 ;;		_get_time
  6224 ;; This function uses a non-reentrant model
  6225 ;;
  6226                           
  6227  0AD3                     _read_ds1307:	
  6228                           ;psect for function _read_ds1307
  6229                           
  6230                           
  6231                           ;incstack = 0
  6232                           ; Regs used in _read_ds1307: [wreg+status,2+status,0+pclath+cstack]
  6233                           ;read_ds1307@addr stored from wreg
  6234  0AD3  00F6               	movwf	read_ds1307@addr
  6235  0AD4                     l3188:
  6236                           
  6237                           ;C:/Users/Shreesh Kulkarni/OneDrive/Desktop/Shreesh/Car_Black_Box.X/ds1307.c: 22: unsign
      +                          ed char read_ds1307(unsigned char addr);C:/Users/Shreesh Kulkarni/OneDrive/Desktop/Shree
      +                          sh/Car_Black_Box.X/ds1307.c: 23: {;C:/Users/Shreesh Kulkarni/OneDrive/Desktop/Shreesh/Ca
      +                          r_Black_Box.X/ds1307.c: 24:     unsigned char data;;C:/Users/Shreesh Kulkarni/OneDrive/D
      +                          esktop/Shreesh/Car_Black_Box.X/ds1307.c: 26:     i2c_start();
  6238  0AD4  160A  118A  27CE  120A  158A  	fcall	_i2c_start
  6239                           
  6240                           ;C:/Users/Shreesh Kulkarni/OneDrive/Desktop/Shreesh/Car_Black_Box.X/ds1307.c: 27:     i2
      +                          c_write(0b11010000);
  6241  0AD9  30D0               	movlw	208
  6242  0ADA  160A  118A  27F5  120A  158A  	fcall	_i2c_write
  6243                           
  6244                           ;C:/Users/Shreesh Kulkarni/OneDrive/Desktop/Shreesh/Car_Black_Box.X/ds1307.c: 28:     i2
      +                          c_write(addr);
  6245  0ADF  0876               	movf	read_ds1307@addr,w
  6246  0AE0  160A  118A  27F5  120A  158A  	fcall	_i2c_write
  6247                           
  6248                           ;C:/Users/Shreesh Kulkarni/OneDrive/Desktop/Shreesh/Car_Black_Box.X/ds1307.c: 29:     i2
      +                          c_rep_start();
  6249  0AE5  160A  118A  27EA  120A  158A  	fcall	_i2c_rep_start
  6250                           
  6251                           ;C:/Users/Shreesh Kulkarni/OneDrive/Desktop/Shreesh/Car_Black_Box.X/ds1307.c: 30:     i2
      +                          c_write(0b11010001);
  6252  0AEA  30D1               	movlw	209
  6253  0AEB  160A  118A  27F5  120A  158A  	fcall	_i2c_write
  6254                           
  6255                           ;C:/Users/Shreesh Kulkarni/OneDrive/Desktop/Shreesh/Car_Black_Box.X/ds1307.c: 31:     da
      +                          ta = i2c_read(0);
  6256  0AF0  3000               	movlw	0
  6257  0AF1  120A  158A  2207  120A  158A  	fcall	_i2c_read
  6258  0AF6  00F5               	movwf	??_read_ds1307
  6259  0AF7  0875               	movf	??_read_ds1307,w
  6260  0AF8  00F7               	movwf	read_ds1307@data
  6261                           
  6262                           ;C:/Users/Shreesh Kulkarni/OneDrive/Desktop/Shreesh/Car_Black_Box.X/ds1307.c: 32:     i2
      +                          c_stop();
  6263  0AF9  160A  118A  27D7  120A  158A  	fcall	_i2c_stop
  6264  0AFE                     l3190:
  6265                           
  6266                           ;C:/Users/Shreesh Kulkarni/OneDrive/Desktop/Shreesh/Car_Black_Box.X/ds1307.c: 34:     re
      +                          turn data;
  6267  0AFE  0877               	movf	read_ds1307@data,w
  6268  0AFF                     l58:
  6269  0AFF  0008               	return
  6270  0B00                     __end_of_read_ds1307:
  6271                           
  6272                           	psect	text26
  6273  17F5                     __ptext26:	
  6274 ;; *************** function _i2c_write *****************
  6275 ;; Defined at:
  6276 ;;		line 73 in file "C:/Users/Shreesh Kulkarni/OneDrive/Desktop/Shreesh/Car_Black_Box.X/i2c.c"
  6277 ;; Parameters:    Size  Location     Type
  6278 ;;  data            1    wreg     unsigned char 
  6279 ;; Auto vars:     Size  Location     Type
  6280 ;;  data            1    2[COMMON] unsigned char 
  6281 ;; Return value:  Size  Location     Type
  6282 ;;                  2   46[None  ] int 
  6283 ;; Registers used:
  6284 ;;		wreg, status,2, status,0, pclath, cstack
  6285 ;; Tracked objects:
  6286 ;;		On entry : 0/0
  6287 ;;		On exit  : 0/0
  6288 ;;		Unchanged: 0/0
  6289 ;; Data sizes:     COMMON   BANK0   BANK1   BANK3   BANK2
  6290 ;;      Params:         0       0       0       0       0
  6291 ;;      Locals:         1       0       0       0       0
  6292 ;;      Temps:          0       0       0       0       0
  6293 ;;      Totals:         1       0       0       0       0
  6294 ;;Total ram usage:        1 bytes
  6295 ;; Hardware stack levels used: 1
  6296 ;; Hardware stack levels required when called: 2
  6297 ;; This function calls:
  6298 ;;		_i2c_wait_for_idle
  6299 ;; This function is called by:
  6300 ;;		_read_ds1307
  6301 ;;		_write_ds1307
  6302 ;; This function uses a non-reentrant model
  6303 ;;
  6304                           
  6305  17F5                     _i2c_write:	
  6306                           ;psect for function _i2c_write
  6307                           
  6308                           
  6309                           ;incstack = 0
  6310                           ; Regs used in _i2c_write: [wreg+status,2+status,0+pclath+cstack]
  6311                           ;i2c_write@data stored from wreg
  6312  17F5  00F2               	movwf	i2c_write@data
  6313  17F6                     l3164:
  6314                           
  6315                           ;C:/Users/Shreesh Kulkarni/OneDrive/Desktop/Shreesh/Car_Black_Box.X/i2c.c: 73: int i2c_w
      +                          rite(unsigned char data);C:/Users/Shreesh Kulkarni/OneDrive/Desktop/Shreesh/Car_Black_Bo
      +                          x.X/i2c.c: 74: {;C:/Users/Shreesh Kulkarni/OneDrive/Desktop/Shreesh/Car_Black_Box.X/i2c.
      +                          c: 75:     i2c_wait_for_idle();
  6316  17F6  120A  158A  214E  160A  118A  	fcall	_i2c_wait_for_idle
  6317  17FB                     l3166:
  6318                           
  6319                           ;C:/Users/Shreesh Kulkarni/OneDrive/Desktop/Shreesh/Car_Black_Box.X/i2c.c: 76:     SSPBU
      +                          F = data;
  6320  17FB  0872               	movf	i2c_write@data,w
  6321  17FC  1283               	bcf	3,5	;RP0=0, select bank0
  6322  17FD  1303               	bcf	3,6	;RP1=0, select bank0
  6323  17FE  0093               	movwf	19	;volatile
  6324  17FF                     l3168:
  6325  17FF                     l113:	
  6326                           ;C:/Users/Shreesh Kulkarni/OneDrive/Desktop/Shreesh/Car_Black_Box.X/i2c.c: 78:     retur
      +                          n !ACKSTAT;;	Return value of _i2c_write is never used
  6327                           
  6328  17FF  0008               	return
  6329  1800                     __end_of_i2c_write:
  6330                           
  6331                           	psect	text27
  6332  17EA                     __ptext27:	
  6333 ;; *************** function _i2c_rep_start *****************
  6334 ;; Defined at:
  6335 ;;		line 36 in file "C:/Users/Shreesh Kulkarni/OneDrive/Desktop/Shreesh/Car_Black_Box.X/i2c.c"
  6336 ;; Parameters:    Size  Location     Type
  6337 ;;		None
  6338 ;; Auto vars:     Size  Location     Type
  6339 ;;		None
  6340 ;; Return value:  Size  Location     Type
  6341 ;;                  1    wreg      void 
  6342 ;; Registers used:
  6343 ;;		wreg, status,2, status,0, pclath, cstack
  6344 ;; Tracked objects:
  6345 ;;		On entry : 0/0
  6346 ;;		On exit  : 0/0
  6347 ;;		Unchanged: 0/0
  6348 ;; Data sizes:     COMMON   BANK0   BANK1   BANK3   BANK2
  6349 ;;      Params:         0       0       0       0       0
  6350 ;;      Locals:         0       0       0       0       0
  6351 ;;      Temps:          0       0       0       0       0
  6352 ;;      Totals:         0       0       0       0       0
  6353 ;;Total ram usage:        0 bytes
  6354 ;; Hardware stack levels used: 1
  6355 ;; Hardware stack levels required when called: 3
  6356 ;; This function calls:
  6357 ;;		_i2c_start
  6358 ;;		_i2c_stop
  6359 ;; This function is called by:
  6360 ;;		_read_ds1307
  6361 ;; This function uses a non-reentrant model
  6362 ;;
  6363                           
  6364  17EA                     _i2c_rep_start:	
  6365                           ;psect for function _i2c_rep_start
  6366                           
  6367  17EA                     l3172:	
  6368                           ;incstack = 0
  6369                           ; Regs used in _i2c_rep_start: [wreg+status,2+status,0+pclath+cstack]
  6370                           
  6371                           
  6372                           ;C:/Users/Shreesh Kulkarni/OneDrive/Desktop/Shreesh/Car_Black_Box.X/i2c.c: 38:     i2c_s
      +                          top();
  6373  17EA  160A  118A  27D7  160A  118A  	fcall	_i2c_stop
  6374                           
  6375                           ;C:/Users/Shreesh Kulkarni/OneDrive/Desktop/Shreesh/Car_Black_Box.X/i2c.c: 39:     i2c_s
      +                          tart();
  6376  17EF  160A  118A  27CE  160A  118A  	fcall	_i2c_start
  6377  17F4                     l102:
  6378  17F4  0008               	return
  6379  17F5                     __end_of_i2c_rep_start:
  6380                           
  6381                           	psect	text28
  6382  17D7                     __ptext28:	
  6383 ;; *************** function _i2c_stop *****************
  6384 ;; Defined at:
  6385 ;;		line 43 in file "C:/Users/Shreesh Kulkarni/OneDrive/Desktop/Shreesh/Car_Black_Box.X/i2c.c"
  6386 ;; Parameters:    Size  Location     Type
  6387 ;;		None
  6388 ;; Auto vars:     Size  Location     Type
  6389 ;;		None
  6390 ;; Return value:  Size  Location     Type
  6391 ;;                  1    wreg      void 
  6392 ;; Registers used:
  6393 ;;		wreg, status,2, status,0, pclath, cstack
  6394 ;; Tracked objects:
  6395 ;;		On entry : 0/0
  6396 ;;		On exit  : 0/0
  6397 ;;		Unchanged: 0/0
  6398 ;; Data sizes:     COMMON   BANK0   BANK1   BANK3   BANK2
  6399 ;;      Params:         0       0       0       0       0
  6400 ;;      Locals:         0       0       0       0       0
  6401 ;;      Temps:          0       0       0       0       0
  6402 ;;      Totals:         0       0       0       0       0
  6403 ;;Total ram usage:        0 bytes
  6404 ;; Hardware stack levels used: 1
  6405 ;; Hardware stack levels required when called: 2
  6406 ;; This function calls:
  6407 ;;		_i2c_wait_for_idle
  6408 ;; This function is called by:
  6409 ;;		_read_ds1307
  6410 ;;		_write_ds1307
  6411 ;;		_i2c_rep_start
  6412 ;; This function uses a non-reentrant model
  6413 ;;
  6414                           
  6415  17D7                     _i2c_stop:	
  6416                           ;psect for function _i2c_stop
  6417                           
  6418  17D7                     l3160:	
  6419                           ;incstack = 0
  6420                           ; Regs used in _i2c_stop: [wreg+status,2+status,0+pclath+cstack]
  6421                           
  6422                           
  6423                           ;C:/Users/Shreesh Kulkarni/OneDrive/Desktop/Shreesh/Car_Black_Box.X/i2c.c: 45:     i2c_w
      +                          ait_for_idle();
  6424  17D7  120A  158A  214E  160A  118A  	fcall	_i2c_wait_for_idle
  6425  17DC                     l3162:
  6426                           
  6427                           ;C:/Users/Shreesh Kulkarni/OneDrive/Desktop/Shreesh/Car_Black_Box.X/i2c.c: 46:     PEN =
      +                           1;
  6428  17DC  1683               	bsf	3,5	;RP0=1, select bank1
  6429  17DD  1303               	bcf	3,6	;RP1=0, select bank1
  6430  17DE  1511               	bsf	17,2	;volatile
  6431  17DF                     l105:
  6432  17DF  0008               	return
  6433  17E0                     __end_of_i2c_stop:
  6434                           
  6435                           	psect	text29
  6436  17CE                     __ptext29:	
  6437 ;; *************** function _i2c_start *****************
  6438 ;; Defined at:
  6439 ;;		line 30 in file "C:/Users/Shreesh Kulkarni/OneDrive/Desktop/Shreesh/Car_Black_Box.X/i2c.c"
  6440 ;; Parameters:    Size  Location     Type
  6441 ;;		None
  6442 ;; Auto vars:     Size  Location     Type
  6443 ;;		None
  6444 ;; Return value:  Size  Location     Type
  6445 ;;                  1    wreg      void 
  6446 ;; Registers used:
  6447 ;;		wreg, status,2, status,0, pclath, cstack
  6448 ;; Tracked objects:
  6449 ;;		On entry : 0/0
  6450 ;;		On exit  : 0/0
  6451 ;;		Unchanged: 0/0
  6452 ;; Data sizes:     COMMON   BANK0   BANK1   BANK3   BANK2
  6453 ;;      Params:         0       0       0       0       0
  6454 ;;      Locals:         0       0       0       0       0
  6455 ;;      Temps:          0       0       0       0       0
  6456 ;;      Totals:         0       0       0       0       0
  6457 ;;Total ram usage:        0 bytes
  6458 ;; Hardware stack levels used: 1
  6459 ;; Hardware stack levels required when called: 2
  6460 ;; This function calls:
  6461 ;;		_i2c_wait_for_idle
  6462 ;; This function is called by:
  6463 ;;		_read_ds1307
  6464 ;;		_write_ds1307
  6465 ;;		_i2c_rep_start
  6466 ;; This function uses a non-reentrant model
  6467 ;;
  6468                           
  6469  17CE                     _i2c_start:	
  6470                           ;psect for function _i2c_start
  6471                           
  6472  17CE                     l3156:	
  6473                           ;incstack = 0
  6474                           ; Regs used in _i2c_start: [wreg+status,2+status,0+pclath+cstack]
  6475                           
  6476                           
  6477                           ;C:/Users/Shreesh Kulkarni/OneDrive/Desktop/Shreesh/Car_Black_Box.X/i2c.c: 32:     i2c_w
      +                          ait_for_idle();
  6478  17CE  120A  158A  214E  160A  118A  	fcall	_i2c_wait_for_idle
  6479  17D3                     l3158:
  6480                           
  6481                           ;C:/Users/Shreesh Kulkarni/OneDrive/Desktop/Shreesh/Car_Black_Box.X/i2c.c: 33:     SEN =
      +                           1;
  6482  17D3  1683               	bsf	3,5	;RP0=1, select bank1
  6483  17D4  1303               	bcf	3,6	;RP1=0, select bank1
  6484  17D5  1411               	bsf	17,0	;volatile
  6485  17D6                     l99:
  6486  17D6  0008               	return
  6487  17D7                     __end_of_i2c_start:
  6488                           
  6489                           	psect	text30
  6490  0A07                     __ptext30:	
  6491 ;; *************** function _i2c_read *****************
  6492 ;; Defined at:
  6493 ;;		line 49 in file "C:/Users/Shreesh Kulkarni/OneDrive/Desktop/Shreesh/Car_Black_Box.X/i2c.c"
  6494 ;; Parameters:    Size  Location     Type
  6495 ;;  ack             1    wreg     unsigned char 
  6496 ;; Auto vars:     Size  Location     Type
  6497 ;;  ack             1    3[COMMON] unsigned char 
  6498 ;;  data            1    4[COMMON] unsigned char 
  6499 ;; Return value:  Size  Location     Type
  6500 ;;                  1    wreg      unsigned char 
  6501 ;; Registers used:
  6502 ;;		wreg, status,2, status,0, pclath, cstack
  6503 ;; Tracked objects:
  6504 ;;		On entry : 0/0
  6505 ;;		On exit  : 0/0
  6506 ;;		Unchanged: 0/0
  6507 ;; Data sizes:     COMMON   BANK0   BANK1   BANK3   BANK2
  6508 ;;      Params:         0       0       0       0       0
  6509 ;;      Locals:         2       0       0       0       0
  6510 ;;      Temps:          1       0       0       0       0
  6511 ;;      Totals:         3       0       0       0       0
  6512 ;;Total ram usage:        3 bytes
  6513 ;; Hardware stack levels used: 1
  6514 ;; Hardware stack levels required when called: 2
  6515 ;; This function calls:
  6516 ;;		_i2c_wait_for_idle
  6517 ;; This function is called by:
  6518 ;;		_read_ds1307
  6519 ;; This function uses a non-reentrant model
  6520 ;;
  6521                           
  6522  0A07                     _i2c_read:	
  6523                           ;psect for function _i2c_read
  6524                           
  6525                           
  6526                           ;incstack = 0
  6527                           ; Regs used in _i2c_read: [wreg+status,2+status,0+pclath+cstack]
  6528                           ;i2c_read@ack stored from wreg
  6529  0A07  00F3               	movwf	i2c_read@ack
  6530  0A08                     l3174:
  6531                           
  6532                           ;C:/Users/Shreesh Kulkarni/OneDrive/Desktop/Shreesh/Car_Black_Box.X/i2c.c: 49: unsigned 
      +                          char i2c_read(unsigned char ack);C:/Users/Shreesh Kulkarni/OneDrive/Desktop/Shreesh/Car_
      +                          Black_Box.X/i2c.c: 50: {;C:/Users/Shreesh Kulkarni/OneDrive/Desktop/Shreesh/Car_Black_Bo
      +                          x.X/i2c.c: 51:     unsigned char data;;C:/Users/Shreesh Kulkarni/OneDrive/Desktop/Shrees
      +                          h/Car_Black_Box.X/i2c.c: 53:     i2c_wait_for_idle();
  6533  0A08  120A  158A  214E  120A  158A  	fcall	_i2c_wait_for_idle
  6534  0A0D                     l3176:
  6535                           
  6536                           ;C:/Users/Shreesh Kulkarni/OneDrive/Desktop/Shreesh/Car_Black_Box.X/i2c.c: 54:     RCEN 
      +                          = 1;
  6537  0A0D  1683               	bsf	3,5	;RP0=1, select bank1
  6538  0A0E  1303               	bcf	3,6	;RP1=0, select bank1
  6539  0A0F  1591               	bsf	17,3	;volatile
  6540                           
  6541                           ;C:/Users/Shreesh Kulkarni/OneDrive/Desktop/Shreesh/Car_Black_Box.X/i2c.c: 56:     i2c_w
      +                          ait_for_idle();
  6542  0A10  120A  158A  214E  120A  158A  	fcall	_i2c_wait_for_idle
  6543  0A15                     l3178:
  6544                           
  6545                           ;C:/Users/Shreesh Kulkarni/OneDrive/Desktop/Shreesh/Car_Black_Box.X/i2c.c: 57:     data 
      +                          = SSPBUF;
  6546  0A15  1283               	bcf	3,5	;RP0=0, select bank0
  6547  0A16  1303               	bcf	3,6	;RP1=0, select bank0
  6548  0A17  0813               	movf	19,w	;volatile
  6549  0A18  00F2               	movwf	??_i2c_read
  6550  0A19  0872               	movf	??_i2c_read,w
  6551  0A1A  00F4               	movwf	i2c_read@data
  6552  0A1B                     l3180:
  6553                           
  6554                           ;C:/Users/Shreesh Kulkarni/OneDrive/Desktop/Shreesh/Car_Black_Box.X/i2c.c: 59:     if (a
      +                          ck == 1)
  6555  0A1B  0373               	decf	i2c_read@ack,w
  6556  0A1C  1D03               	btfss	3,2
  6557  0A1D  2A1F               	goto	u2341
  6558  0A1E  2A20               	goto	u2340
  6559  0A1F                     u2341:
  6560  0A1F  2A24               	goto	l108
  6561  0A20                     u2340:
  6562  0A20                     l3182:
  6563                           
  6564                           ;C:/Users/Shreesh Kulkarni/OneDrive/Desktop/Shreesh/Car_Black_Box.X/i2c.c: 60:     {;C:/
      +                          Users/Shreesh Kulkarni/OneDrive/Desktop/Shreesh/Car_Black_Box.X/i2c.c: 61:         ACKDT
      +                           = 1;
  6565  0A20  1683               	bsf	3,5	;RP0=1, select bank1
  6566  0A21  1303               	bcf	3,6	;RP1=0, select bank1
  6567  0A22  1691               	bsf	17,5	;volatile
  6568                           
  6569                           ;C:/Users/Shreesh Kulkarni/OneDrive/Desktop/Shreesh/Car_Black_Box.X/i2c.c: 62:     }
  6570  0A23  2A27               	goto	l109
  6571  0A24                     l108:	
  6572                           ;C:/Users/Shreesh Kulkarni/OneDrive/Desktop/Shreesh/Car_Black_Box.X/i2c.c: 63:     else
  6573                           
  6574                           
  6575                           ;C:/Users/Shreesh Kulkarni/OneDrive/Desktop/Shreesh/Car_Black_Box.X/i2c.c: 64:     {;C:/
      +                          Users/Shreesh Kulkarni/OneDrive/Desktop/Shreesh/Car_Black_Box.X/i2c.c: 65:         ACKDT
      +                           = 0;
  6576  0A24  1683               	bsf	3,5	;RP0=1, select bank1
  6577  0A25  1303               	bcf	3,6	;RP1=0, select bank1
  6578  0A26  1291               	bcf	17,5	;volatile
  6579  0A27                     l109:	
  6580                           ;C:/Users/Shreesh Kulkarni/OneDrive/Desktop/Shreesh/Car_Black_Box.X/i2c.c: 66:     }
  6581                           
  6582                           
  6583                           ;C:/Users/Shreesh Kulkarni/OneDrive/Desktop/Shreesh/Car_Black_Box.X/i2c.c: 68:     ACKEN
      +                           = 1;
  6584  0A27  1611               	bsf	17,4	;volatile
  6585  0A28                     l3184:
  6586                           
  6587                           ;C:/Users/Shreesh Kulkarni/OneDrive/Desktop/Shreesh/Car_Black_Box.X/i2c.c: 70:     retur
      +                          n data;
  6588  0A28  0874               	movf	i2c_read@data,w
  6589  0A29                     l110:
  6590  0A29  0008               	return
  6591  0A2A                     __end_of_i2c_read:
  6592                           
  6593                           	psect	text31
  6594  094E                     __ptext31:	
  6595 ;; *************** function _i2c_wait_for_idle *****************
  6596 ;; Defined at:
  6597 ;;		line 24 in file "C:/Users/Shreesh Kulkarni/OneDrive/Desktop/Shreesh/Car_Black_Box.X/i2c.c"
  6598 ;; Parameters:    Size  Location     Type
  6599 ;;		None
  6600 ;; Auto vars:     Size  Location     Type
  6601 ;;		None
  6602 ;; Return value:  Size  Location     Type
  6603 ;;                  1    wreg      void 
  6604 ;; Registers used:
  6605 ;;		wreg, status,2
  6606 ;; Tracked objects:
  6607 ;;		On entry : 0/0
  6608 ;;		On exit  : 0/0
  6609 ;;		Unchanged: 0/0
  6610 ;; Data sizes:     COMMON   BANK0   BANK1   BANK3   BANK2
  6611 ;;      Params:         0       0       0       0       0
  6612 ;;      Locals:         0       0       0       0       0
  6613 ;;      Temps:          0       0       0       0       0
  6614 ;;      Totals:         0       0       0       0       0
  6615 ;;Total ram usage:        0 bytes
  6616 ;; Hardware stack levels used: 1
  6617 ;; Hardware stack levels required when called: 1
  6618 ;; This function calls:
  6619 ;;		Nothing
  6620 ;; This function is called by:
  6621 ;;		_i2c_start
  6622 ;;		_i2c_stop
  6623 ;;		_i2c_read
  6624 ;;		_i2c_write
  6625 ;; This function uses a non-reentrant model
  6626 ;;
  6627                           
  6628  094E                     _i2c_wait_for_idle:	
  6629                           ;psect for function _i2c_wait_for_idle
  6630                           
  6631  094E                     l3152:	
  6632                           ;incstack = 0
  6633                           ; Regs used in _i2c_wait_for_idle: [wreg+status,2]
  6634                           
  6635  094E                     l93:	
  6636                           ;C:/Users/Shreesh Kulkarni/OneDrive/Desktop/Shreesh/Car_Black_Box.X/i2c.c: 27:     while
      +                           (R_nW || (SSPCON2 & 0x1F));
  6637                           
  6638  094E  1683               	bsf	3,5	;RP0=1, select bank1
  6639  094F  1303               	bcf	3,6	;RP1=0, select bank1
  6640  0950  1914               	btfsc	20,2	;volatile
  6641  0951  2953               	goto	u2321
  6642  0952  2954               	goto	u2320
  6643  0953                     u2321:
  6644  0953  294E               	goto	l93
  6645  0954                     u2320:
  6646  0954                     l3154:
  6647  0954  0811               	movf	17,w	;volatile
  6648  0955  391F               	andlw	31
  6649  0956  1D03               	btfss	3,2
  6650  0957  2959               	goto	u2331
  6651  0958  295A               	goto	u2330
  6652  0959                     u2331:
  6653  0959  294E               	goto	l93
  6654  095A                     u2330:
  6655  095A                     l96:
  6656  095A  0008               	return
  6657  095B                     __end_of_i2c_wait_for_idle:
  6658                           
  6659                           	psect	text32
  6660  0D4C                     __ptext32:	
  6661 ;; *************** function ___awmod *****************
  6662 ;; Defined at:
  6663 ;;		line 5 in file "C:\Program Files\Microchip\xc8\v2.36\pic\sources\c90\common\awmod.c"
  6664 ;; Parameters:    Size  Location     Type
  6665 ;;  divisor         2    2[COMMON] int 
  6666 ;;  dividend        2    4[COMMON] int 
  6667 ;; Auto vars:     Size  Location     Type
  6668 ;;  sign            1    8[COMMON] unsigned char 
  6669 ;;  counter         1    7[COMMON] unsigned char 
  6670 ;; Return value:  Size  Location     Type
  6671 ;;                  2    2[COMMON] int 
  6672 ;; Registers used:
  6673 ;;		wreg, status,2, status,0
  6674 ;; Tracked objects:
  6675 ;;		On entry : 0/0
  6676 ;;		On exit  : 0/0
  6677 ;;		Unchanged: 0/0
  6678 ;; Data sizes:     COMMON   BANK0   BANK1   BANK3   BANK2
  6679 ;;      Params:         4       0       0       0       0
  6680 ;;      Locals:         2       0       0       0       0
  6681 ;;      Temps:          1       0       0       0       0
  6682 ;;      Totals:         7       0       0       0       0
  6683 ;;Total ram usage:        7 bytes
  6684 ;; Hardware stack levels used: 1
  6685 ;; Hardware stack levels required when called: 1
  6686 ;; This function calls:
  6687 ;;		Nothing
  6688 ;; This function is called by:
  6689 ;;		_display_dash_board
  6690 ;;		_log_car_event
  6691 ;;		_view_log
  6692 ;;		_login
  6693 ;; This function uses a non-reentrant model
  6694 ;;
  6695                           
  6696  0D4C                     ___awmod:	
  6697                           ;psect for function ___awmod
  6698                           
  6699  0D4C                     l2398:	
  6700                           ;incstack = 0
  6701                           ; Regs used in ___awmod: [wreg+status,2+status,0]
  6702                           
  6703  0D4C  01F8               	clrf	___awmod@sign
  6704  0D4D                     l2400:
  6705  0D4D  1FF5               	btfss	___awmod@dividend+1,7
  6706  0D4E  2D50               	goto	u1561
  6707  0D4F  2D51               	goto	u1560
  6708  0D50                     u1561:
  6709  0D50  2D58               	goto	l2406
  6710  0D51                     u1560:
  6711  0D51                     l2402:
  6712  0D51  09F4               	comf	___awmod@dividend,f
  6713  0D52  09F5               	comf	___awmod@dividend+1,f
  6714  0D53  0AF4               	incf	___awmod@dividend,f
  6715  0D54  1903               	skipnz
  6716  0D55  0AF5               	incf	___awmod@dividend+1,f
  6717  0D56                     l2404:
  6718  0D56  01F8               	clrf	___awmod@sign
  6719  0D57  0AF8               	incf	___awmod@sign,f
  6720  0D58                     l2406:
  6721  0D58  1FF3               	btfss	___awmod@divisor+1,7
  6722  0D59  2D5B               	goto	u1571
  6723  0D5A  2D5C               	goto	u1570
  6724  0D5B                     u1571:
  6725  0D5B  2D61               	goto	l2410
  6726  0D5C                     u1570:
  6727  0D5C                     l2408:
  6728  0D5C  09F2               	comf	___awmod@divisor,f
  6729  0D5D  09F3               	comf	___awmod@divisor+1,f
  6730  0D5E  0AF2               	incf	___awmod@divisor,f
  6731  0D5F  1903               	skipnz
  6732  0D60  0AF3               	incf	___awmod@divisor+1,f
  6733  0D61                     l2410:
  6734  0D61  0872               	movf	___awmod@divisor,w
  6735  0D62  0473               	iorwf	___awmod@divisor+1,w
  6736  0D63  1903               	btfsc	3,2
  6737  0D64  2D66               	goto	u1581
  6738  0D65  2D67               	goto	u1580
  6739  0D66                     u1581:
  6740  0D66  2D96               	goto	l2428
  6741  0D67                     u1580:
  6742  0D67                     l2412:
  6743  0D67  01F7               	clrf	___awmod@counter
  6744  0D68  0AF7               	incf	___awmod@counter,f
  6745  0D69  2D75               	goto	l2418
  6746  0D6A                     l2414:
  6747  0D6A  3001               	movlw	1
  6748  0D6B                     u1595:
  6749  0D6B  1003               	clrc
  6750  0D6C  0DF2               	rlf	___awmod@divisor,f
  6751  0D6D  0DF3               	rlf	___awmod@divisor+1,f
  6752  0D6E  3EFF               	addlw	-1
  6753  0D6F  1D03               	skipz
  6754  0D70  2D6B               	goto	u1595
  6755  0D71                     l2416:
  6756  0D71  3001               	movlw	1
  6757  0D72  00F6               	movwf	??___awmod
  6758  0D73  0876               	movf	??___awmod,w
  6759  0D74  07F7               	addwf	___awmod@counter,f
  6760  0D75                     l2418:
  6761  0D75  1FF3               	btfss	___awmod@divisor+1,7
  6762  0D76  2D78               	goto	u1601
  6763  0D77  2D79               	goto	u1600
  6764  0D78                     u1601:
  6765  0D78  2D6A               	goto	l2414
  6766  0D79                     u1600:
  6767  0D79                     l2420:
  6768  0D79  0873               	movf	___awmod@divisor+1,w
  6769  0D7A  0275               	subwf	___awmod@dividend+1,w
  6770  0D7B  1D03               	skipz
  6771  0D7C  2D7F               	goto	u1615
  6772  0D7D  0872               	movf	___awmod@divisor,w
  6773  0D7E  0274               	subwf	___awmod@dividend,w
  6774  0D7F                     u1615:
  6775  0D7F  1C03               	skipc
  6776  0D80  2D82               	goto	u1611
  6777  0D81  2D83               	goto	u1610
  6778  0D82                     u1611:
  6779  0D82  2D89               	goto	l2424
  6780  0D83                     u1610:
  6781  0D83                     l2422:
  6782  0D83  0872               	movf	___awmod@divisor,w
  6783  0D84  02F4               	subwf	___awmod@dividend,f
  6784  0D85  0873               	movf	___awmod@divisor+1,w
  6785  0D86  1C03               	skipc
  6786  0D87  03F5               	decf	___awmod@dividend+1,f
  6787  0D88  02F5               	subwf	___awmod@dividend+1,f
  6788  0D89                     l2424:
  6789  0D89  3001               	movlw	1
  6790  0D8A                     u1625:
  6791  0D8A  1003               	clrc
  6792  0D8B  0CF3               	rrf	___awmod@divisor+1,f
  6793  0D8C  0CF2               	rrf	___awmod@divisor,f
  6794  0D8D  3EFF               	addlw	-1
  6795  0D8E  1D03               	skipz
  6796  0D8F  2D8A               	goto	u1625
  6797  0D90                     l2426:
  6798  0D90  3001               	movlw	1
  6799  0D91  02F7               	subwf	___awmod@counter,f
  6800  0D92  1D03               	btfss	3,2
  6801  0D93  2D95               	goto	u1631
  6802  0D94  2D96               	goto	u1630
  6803  0D95                     u1631:
  6804  0D95  2D79               	goto	l2420
  6805  0D96                     u1630:
  6806  0D96                     l2428:
  6807  0D96  0878               	movf	___awmod@sign,w
  6808  0D97  1903               	btfsc	3,2
  6809  0D98  2D9A               	goto	u1641
  6810  0D99  2D9B               	goto	u1640
  6811  0D9A                     u1641:
  6812  0D9A  2DA0               	goto	l2432
  6813  0D9B                     u1640:
  6814  0D9B                     l2430:
  6815  0D9B  09F4               	comf	___awmod@dividend,f
  6816  0D9C  09F5               	comf	___awmod@dividend+1,f
  6817  0D9D  0AF4               	incf	___awmod@dividend,f
  6818  0D9E  1903               	skipnz
  6819  0D9F  0AF5               	incf	___awmod@dividend+1,f
  6820  0DA0                     l2432:
  6821  0DA0  0875               	movf	___awmod@dividend+1,w
  6822  0DA1  00F3               	movwf	?___awmod+1
  6823  0DA2  0874               	movf	___awmod@dividend,w
  6824  0DA3  00F2               	movwf	?___awmod
  6825  0DA4                     l697:
  6826  0DA4  0008               	return
  6827  0DA5                     __end_of___awmod:
  6828                           
  6829                           	psect	text33
  6830  0F97                     __ptext33:	
  6831 ;; *************** function ___awdiv *****************
  6832 ;; Defined at:
  6833 ;;		line 5 in file "C:\Program Files\Microchip\xc8\v2.36\pic\sources\c90\common\awdiv.c"
  6834 ;; Parameters:    Size  Location     Type
  6835 ;;  divisor         2    2[COMMON] int 
  6836 ;;  dividend        2    4[COMMON] int 
  6837 ;; Auto vars:     Size  Location     Type
  6838 ;;  quotient        2    2[BANK0 ] int 
  6839 ;;  sign            1    1[BANK0 ] unsigned char 
  6840 ;;  counter         1    0[BANK0 ] unsigned char 
  6841 ;; Return value:  Size  Location     Type
  6842 ;;                  2    2[COMMON] int 
  6843 ;; Registers used:
  6844 ;;		wreg, status,2, status,0
  6845 ;; Tracked objects:
  6846 ;;		On entry : 0/0
  6847 ;;		On exit  : 0/0
  6848 ;;		Unchanged: 0/0
  6849 ;; Data sizes:     COMMON   BANK0   BANK1   BANK3   BANK2
  6850 ;;      Params:         4       0       0       0       0
  6851 ;;      Locals:         0       4       0       0       0
  6852 ;;      Temps:          1       0       0       0       0
  6853 ;;      Totals:         5       4       0       0       0
  6854 ;;Total ram usage:        9 bytes
  6855 ;; Hardware stack levels used: 1
  6856 ;; Hardware stack levels required when called: 1
  6857 ;; This function calls:
  6858 ;;		Nothing
  6859 ;; This function is called by:
  6860 ;;		_display_dash_board
  6861 ;;		_log_car_event
  6862 ;;		_login
  6863 ;; This function uses a non-reentrant model
  6864 ;;
  6865                           
  6866  0F97                     ___awdiv:	
  6867                           ;psect for function ___awdiv
  6868                           
  6869  0F97                     l2354:	
  6870                           ;incstack = 0
  6871                           ; Regs used in ___awdiv: [wreg+status,2+status,0]
  6872                           
  6873  0F97  1283               	bcf	3,5	;RP0=0, select bank0
  6874  0F98  1303               	bcf	3,6	;RP1=0, select bank0
  6875  0F99  01A1               	clrf	___awdiv@sign
  6876  0F9A                     l2356:
  6877  0F9A  1FF3               	btfss	___awdiv@divisor+1,7
  6878  0F9B  2F9D               	goto	u1461
  6879  0F9C  2F9E               	goto	u1460
  6880  0F9D                     u1461:
  6881  0F9D  2FA5               	goto	l2362
  6882  0F9E                     u1460:
  6883  0F9E                     l2358:
  6884  0F9E  09F2               	comf	___awdiv@divisor,f
  6885  0F9F  09F3               	comf	___awdiv@divisor+1,f
  6886  0FA0  0AF2               	incf	___awdiv@divisor,f
  6887  0FA1  1903               	skipnz
  6888  0FA2  0AF3               	incf	___awdiv@divisor+1,f
  6889  0FA3                     l2360:
  6890  0FA3  01A1               	clrf	___awdiv@sign
  6891  0FA4  0AA1               	incf	___awdiv@sign,f
  6892  0FA5                     l2362:
  6893  0FA5  1FF5               	btfss	___awdiv@dividend+1,7
  6894  0FA6  2FA8               	goto	u1471
  6895  0FA7  2FA9               	goto	u1470
  6896  0FA8                     u1471:
  6897  0FA8  2FB2               	goto	l2368
  6898  0FA9                     u1470:
  6899  0FA9                     l2364:
  6900  0FA9  09F4               	comf	___awdiv@dividend,f
  6901  0FAA  09F5               	comf	___awdiv@dividend+1,f
  6902  0FAB  0AF4               	incf	___awdiv@dividend,f
  6903  0FAC  1903               	skipnz
  6904  0FAD  0AF5               	incf	___awdiv@dividend+1,f
  6905  0FAE                     l2366:
  6906  0FAE  3001               	movlw	1
  6907  0FAF  00F6               	movwf	??___awdiv
  6908  0FB0  0876               	movf	??___awdiv,w
  6909  0FB1  06A1               	xorwf	___awdiv@sign,f
  6910  0FB2                     l2368:
  6911  0FB2  01A2               	clrf	___awdiv@quotient
  6912  0FB3  01A3               	clrf	___awdiv@quotient+1
  6913  0FB4                     l2370:
  6914  0FB4  0872               	movf	___awdiv@divisor,w
  6915  0FB5  0473               	iorwf	___awdiv@divisor+1,w
  6916  0FB6  1903               	btfsc	3,2
  6917  0FB7  2FB9               	goto	u1481
  6918  0FB8  2FBA               	goto	u1480
  6919  0FB9                     u1481:
  6920  0FB9  2FF1               	goto	l2390
  6921  0FBA                     u1480:
  6922  0FBA                     l2372:
  6923  0FBA  01A0               	clrf	___awdiv@counter
  6924  0FBB  0AA0               	incf	___awdiv@counter,f
  6925  0FBC  2FC8               	goto	l2378
  6926  0FBD                     l2374:
  6927  0FBD  3001               	movlw	1
  6928  0FBE                     u1495:
  6929  0FBE  1003               	clrc
  6930  0FBF  0DF2               	rlf	___awdiv@divisor,f
  6931  0FC0  0DF3               	rlf	___awdiv@divisor+1,f
  6932  0FC1  3EFF               	addlw	-1
  6933  0FC2  1D03               	skipz
  6934  0FC3  2FBE               	goto	u1495
  6935  0FC4                     l2376:
  6936  0FC4  3001               	movlw	1
  6937  0FC5  00F6               	movwf	??___awdiv
  6938  0FC6  0876               	movf	??___awdiv,w
  6939  0FC7  07A0               	addwf	___awdiv@counter,f
  6940  0FC8                     l2378:
  6941  0FC8  1FF3               	btfss	___awdiv@divisor+1,7
  6942  0FC9  2FCB               	goto	u1501
  6943  0FCA  2FCC               	goto	u1500
  6944  0FCB                     u1501:
  6945  0FCB  2FBD               	goto	l2374
  6946  0FCC                     u1500:
  6947  0FCC                     l2380:
  6948  0FCC  3001               	movlw	1
  6949  0FCD                     u1515:
  6950  0FCD  1003               	clrc
  6951  0FCE  0DA2               	rlf	___awdiv@quotient,f
  6952  0FCF  0DA3               	rlf	___awdiv@quotient+1,f
  6953  0FD0  3EFF               	addlw	-1
  6954  0FD1  1D03               	skipz
  6955  0FD2  2FCD               	goto	u1515
  6956  0FD3  0873               	movf	___awdiv@divisor+1,w
  6957  0FD4  0275               	subwf	___awdiv@dividend+1,w
  6958  0FD5  1D03               	skipz
  6959  0FD6  2FD9               	goto	u1525
  6960  0FD7  0872               	movf	___awdiv@divisor,w
  6961  0FD8  0274               	subwf	___awdiv@dividend,w
  6962  0FD9                     u1525:
  6963  0FD9  1C03               	skipc
  6964  0FDA  2FDC               	goto	u1521
  6965  0FDB  2FDD               	goto	u1520
  6966  0FDC                     u1521:
  6967  0FDC  2FE4               	goto	l2386
  6968  0FDD                     u1520:
  6969  0FDD                     l2382:
  6970  0FDD  0872               	movf	___awdiv@divisor,w
  6971  0FDE  02F4               	subwf	___awdiv@dividend,f
  6972  0FDF  0873               	movf	___awdiv@divisor+1,w
  6973  0FE0  1C03               	skipc
  6974  0FE1  03F5               	decf	___awdiv@dividend+1,f
  6975  0FE2  02F5               	subwf	___awdiv@dividend+1,f
  6976  0FE3                     l2384:
  6977  0FE3  1422               	bsf	___awdiv@quotient,0
  6978  0FE4                     l2386:
  6979  0FE4  3001               	movlw	1
  6980  0FE5                     u1535:
  6981  0FE5  1003               	clrc
  6982  0FE6  0CF3               	rrf	___awdiv@divisor+1,f
  6983  0FE7  0CF2               	rrf	___awdiv@divisor,f
  6984  0FE8  3EFF               	addlw	-1
  6985  0FE9  1D03               	skipz
  6986  0FEA  2FE5               	goto	u1535
  6987  0FEB                     l2388:
  6988  0FEB  3001               	movlw	1
  6989  0FEC  02A0               	subwf	___awdiv@counter,f
  6990  0FED  1D03               	btfss	3,2
  6991  0FEE  2FF0               	goto	u1541
  6992  0FEF  2FF1               	goto	u1540
  6993  0FF0                     u1541:
  6994  0FF0  2FCC               	goto	l2380
  6995  0FF1                     u1540:
  6996  0FF1                     l2390:
  6997  0FF1  0821               	movf	___awdiv@sign,w
  6998  0FF2  1903               	btfsc	3,2
  6999  0FF3  2FF5               	goto	u1551
  7000  0FF4  2FF6               	goto	u1550
  7001  0FF5                     u1551:
  7002  0FF5  2FFB               	goto	l2394
  7003  0FF6                     u1550:
  7004  0FF6                     l2392:
  7005  0FF6  09A2               	comf	___awdiv@quotient,f
  7006  0FF7  09A3               	comf	___awdiv@quotient+1,f
  7007  0FF8  0AA2               	incf	___awdiv@quotient,f
  7008  0FF9  1903               	skipnz
  7009  0FFA  0AA3               	incf	___awdiv@quotient+1,f
  7010  0FFB                     l2394:
  7011  0FFB  0823               	movf	___awdiv@quotient+1,w
  7012  0FFC  00F3               	movwf	?___awdiv+1
  7013  0FFD  0822               	movf	___awdiv@quotient,w
  7014  0FFE  00F2               	movwf	?___awdiv
  7015  0FFF                     l684:
  7016  0FFF  0008               	return
  7017  1000                     __end_of___awdiv:
  7018                           
  7019                           	psect	text34
  7020  0B96                     __ptext34:	
  7021 ;; *************** function _clear_log *****************
  7022 ;; Defined at:
  7023 ;;		line 266 in file "C:/Users/Shreesh Kulkarni/OneDrive/Desktop/Shreesh/Car_Black_Box.X/car_black_box_def.c"
  7024 ;; Parameters:    Size  Location     Type
  7025 ;;  reset_flag      1    wreg     unsigned char 
  7026 ;; Auto vars:     Size  Location     Type
  7027 ;;  reset_flag      1    3[BANK0 ] unsigned char 
  7028 ;; Return value:  Size  Location     Type
  7029 ;;                  1    wreg      unsigned char 
  7030 ;; Registers used:
  7031 ;;		wreg, fsr0l, fsr0h, status,2, status,0, btemp+1, pclath, cstack
  7032 ;; Tracked objects:
  7033 ;;		On entry : 0/0
  7034 ;;		On exit  : 0/0
  7035 ;;		Unchanged: 0/0
  7036 ;; Data sizes:     COMMON   BANK0   BANK1   BANK3   BANK2
  7037 ;;      Params:         0       0       0       0       0
  7038 ;;      Locals:         0       1       0       0       0
  7039 ;;      Temps:          0       3       0       0       0
  7040 ;;      Totals:         0       4       0       0       0
  7041 ;;Total ram usage:        4 bytes
  7042 ;; Hardware stack levels used: 1
  7043 ;; Hardware stack levels required when called: 3
  7044 ;; This function calls:
  7045 ;;		_clcd_print
  7046 ;; This function is called by:
  7047 ;;		_main
  7048 ;; This function uses a non-reentrant model
  7049 ;;
  7050                           
  7051  0B96                     _clear_log:	
  7052                           ;psect for function _clear_log
  7053                           
  7054                           
  7055                           ;incstack = 0
  7056                           ; Regs used in _clear_log: [wreg-fsr0h+status,2+status,0+btemp+1+pclath+cstack]
  7057                           ;clear_log@reset_flag stored from wreg
  7058  0B96  1283               	bcf	3,5	;RP0=0, select bank0
  7059  0B97  1303               	bcf	3,6	;RP1=0, select bank0
  7060  0B98  00A3               	movwf	clear_log@reset_flag
  7061  0B99                     l3514:
  7062                           
  7063                           ;C:/Users/Shreesh Kulkarni/OneDrive/Desktop/Shreesh/Car_Black_Box.X/car_black_box_def.c:
      +                           266: char clear_log(unsigned char reset_flag);C:/Users/Shreesh Kulkarni/OneDrive/Deskto
      +                          p/Shreesh/Car_Black_Box.X/car_black_box_def.c: 267: {;C:/Users/Shreesh Kulkarni/OneDrive
      +                          /Desktop/Shreesh/Car_Black_Box.X/car_black_box_def.c: 270:     if(reset_flag==0x17){
  7064  0B99  3017               	movlw	23
  7065  0B9A  0623               	xorwf	clear_log@reset_flag,w
  7066  0B9B  1D03               	btfss	3,2
  7067  0B9C  2B9E               	goto	u2741
  7068  0B9D  2B9F               	goto	u2740
  7069  0B9E                     u2741:
  7070  0B9E  2BD2               	goto	l356
  7071  0B9F                     u2740:
  7072  0B9F                     l3516:
  7073                           
  7074                           ;C:/Users/Shreesh Kulkarni/OneDrive/Desktop/Shreesh/Car_Black_Box.X/car_black_box_def.c:
      +                           271:         event_count=-1;
  7075  0B9F  30FF               	movlw	255
  7076  0BA0  00CE               	movwf	_event_count
  7077  0BA1  30FF               	movlw	255
  7078  0BA2  00CF               	movwf	_event_count+1
  7079                           
  7080                           ;C:/Users/Shreesh Kulkarni/OneDrive/Desktop/Shreesh/Car_Black_Box.X/car_black_box_def.c:
      +                           272:         pos=-1;
  7081  0BA3  30FF               	movlw	255
  7082  0BA4  00A0               	movwf	??_clear_log
  7083  0BA5  0820               	movf	??_clear_log,w
  7084  0BA6  00EE               	movwf	_pos
  7085  0BA7                     l3518:
  7086                           
  7087                           ;C:/Users/Shreesh Kulkarni/OneDrive/Desktop/Shreesh/Car_Black_Box.X/car_black_box_def.c:
      +                           273:         clcd_print("Logs cleared",(0x80 + 0));
  7088  0BA7  30B4               	movlw	low (STR_22| (0+32768))
  7089  0BA8  00F6               	movwf	clcd_print@str
  7090  0BA9  3088               	movlw	high (STR_22| (0+32768))
  7091  0BAA  00F7               	movwf	clcd_print@str+1
  7092  0BAB  3080               	movlw	128
  7093  0BAC  00A0               	movwf	??_clear_log
  7094  0BAD  0820               	movf	??_clear_log,w
  7095  0BAE  00F8               	movwf	clcd_print@addr
  7096  0BAF  120A  158A  2300  120A  158A  	fcall	_clcd_print
  7097  0BB4                     l3520:
  7098                           
  7099                           ;C:/Users/Shreesh Kulkarni/OneDrive/Desktop/Shreesh/Car_Black_Box.X/car_black_box_def.c:
      +                           274:         clcd_print("Successfully",(0xC0 + 0));
  7100  0BB4  30CE               	movlw	low (STR_23| (0+32768))
  7101  0BB5  00F6               	movwf	clcd_print@str
  7102  0BB6  3088               	movlw	high (STR_23| (0+32768))
  7103  0BB7  00F7               	movwf	clcd_print@str+1
  7104  0BB8  30C0               	movlw	192
  7105  0BB9  1283               	bcf	3,5	;RP0=0, select bank0
  7106  0BBA  1303               	bcf	3,6	;RP1=0, select bank0
  7107  0BBB  00A0               	movwf	??_clear_log
  7108  0BBC  0820               	movf	??_clear_log,w
  7109  0BBD  00F8               	movwf	clcd_print@addr
  7110  0BBE  120A  158A  2300  120A  158A  	fcall	_clcd_print
  7111                           
  7112                           ;C:/Users/Shreesh Kulkarni/OneDrive/Desktop/Shreesh/Car_Black_Box.X/car_black_box_def.c:
      +                           275:         _delay((unsigned long)((3000)*(20000000/4000.0)));
  7113  0BC3  304D               	movlw	77
  7114  0BC4  1283               	bcf	3,5	;RP0=0, select bank0
  7115  0BC5  1303               	bcf	3,6	;RP1=0, select bank0
  7116  0BC6  00A2               	movwf	??_clear_log+2
  7117  0BC7  3019               	movlw	25
  7118  0BC8  00A1               	movwf	??_clear_log+1
  7119  0BC9  304F               	movlw	79
  7120  0BCA  00A0               	movwf	??_clear_log
  7121  0BCB                     u3187:
  7122  0BCB  0BA0               	decfsz	??_clear_log,f
  7123  0BCC  2BCB               	goto	u3187
  7124  0BCD  0BA1               	decfsz	??_clear_log+1,f
  7125  0BCE  2BCB               	goto	u3187
  7126  0BCF  0BA2               	decfsz	??_clear_log+2,f
  7127  0BD0  2BCB               	goto	u3187
  7128                           
  7129                           ;C:/Users/Shreesh Kulkarni/OneDrive/Desktop/Shreesh/Car_Black_Box.X/car_black_box_def.c:
      +                           277:         return 0x11;
  7130  0BD1  3011               	movlw	17
  7131  0BD2                     l356:
  7132  0BD2  0008               	return
  7133  0BD3                     __end_of_clear_log:
  7134                           
  7135                           	psect	text35
  7136  0482                     __ptext35:	
  7137 ;; *************** function _change_password *****************
  7138 ;; Defined at:
  7139 ;;		line 281 in file "C:/Users/Shreesh Kulkarni/OneDrive/Desktop/Shreesh/Car_Black_Box.X/car_black_box_def.c"
  7140 ;; Parameters:    Size  Location     Type
  7141 ;;  key             1    wreg     unsigned char 
  7142 ;;  reset_flag      1    6[BANK0 ] unsigned char 
  7143 ;; Auto vars:     Size  Location     Type
  7144 ;;  key             1   10[BANK0 ] unsigned char 
  7145 ;;  i               2   11[BANK0 ] int 
  7146 ;; Return value:  Size  Location     Type
  7147 ;;                  1    wreg      unsigned char 
  7148 ;; Registers used:
  7149 ;;		wreg, fsr0l, fsr0h, status,2, status,0, btemp+1, pclath, cstack
  7150 ;; Tracked objects:
  7151 ;;		On entry : 0/0
  7152 ;;		On exit  : 0/0
  7153 ;;		Unchanged: 0/0
  7154 ;; Data sizes:     COMMON   BANK0   BANK1   BANK3   BANK2
  7155 ;;      Params:         0       1       0       0       0
  7156 ;;      Locals:         0       3       0       0       0
  7157 ;;      Temps:          0       3       0       0       0
  7158 ;;      Totals:         0       7       0       0       0
  7159 ;;Total ram usage:        7 bytes
  7160 ;; Hardware stack levels used: 1
  7161 ;; Hardware stack levels required when called: 3
  7162 ;; This function calls:
  7163 ;;		_clcd_print
  7164 ;;		_clcd_putch
  7165 ;;		_clcd_write
  7166 ;;		_clear_screen
  7167 ;;		_eeprom_write
  7168 ;;		_strncmp
  7169 ;; This function is called by:
  7170 ;;		_main
  7171 ;; This function uses a non-reentrant model
  7172 ;;
  7173                           
  7174  0482                     _change_password:	
  7175                           ;psect for function _change_password
  7176                           
  7177                           
  7178                           ;incstack = 0
  7179                           ; Regs used in _change_password: [wreg-fsr0h+status,2+status,0+btemp+1+pclath+cstack]
  7180                           ;change_password@key stored from wreg
  7181  0482  1283               	bcf	3,5	;RP0=0, select bank0
  7182  0483  1303               	bcf	3,6	;RP1=0, select bank0
  7183  0484  00AA               	movwf	change_password@key
  7184  0485                     l3524:
  7185                           
  7186                           ;C:/Users/Shreesh Kulkarni/OneDrive/Desktop/Shreesh/Car_Black_Box.X/car_black_box_def.c:
      +                           281: char change_password(unsigned char key, unsigned char reset_flag);C:/Users/Shreesh
      +                           Kulkarni/OneDrive/Desktop/Shreesh/Car_Black_Box.X/car_black_box_def.c: 282: {;C:/Users/
      +                          Shreesh Kulkarni/OneDrive/Desktop/Shreesh/Car_Black_Box.X/car_black_box_def.c: 283:     
      +                          static char pwd[9];;C:/Users/Shreesh Kulkarni/OneDrive/Desktop/Shreesh/Car_Black_Box.X/c
      +                          ar_black_box_def.c: 284:     static int pos,once;;C:/Users/Shreesh Kulkarni/OneDrive/Des
      +                          ktop/Shreesh/Car_Black_Box.X/car_black_box_def.c: 285:     if(reset_flag==0x19)
  7187  0485  3019               	movlw	25
  7188  0486  0626               	xorwf	change_password@reset_flag,w
  7189  0487  1D03               	btfss	3,2
  7190  0488  2C8A               	goto	u2751
  7191  0489  2C8B               	goto	u2750
  7192  048A                     u2751:
  7193  048A  2C91               	goto	l3530
  7194  048B                     u2750:
  7195  048B                     l3526:
  7196                           
  7197                           ;C:/Users/Shreesh Kulkarni/OneDrive/Desktop/Shreesh/Car_Black_Box.X/car_black_box_def.c:
      +                           286:     {;C:/Users/Shreesh Kulkarni/OneDrive/Desktop/Shreesh/Car_Black_Box.X/car_black
      +                          _box_def.c: 287:       pos=0;
  7198  048B  01CC               	clrf	change_password@pos
  7199  048C  01CD               	clrf	change_password@pos+1
  7200  048D                     l3528:
  7201                           
  7202                           ;C:/Users/Shreesh Kulkarni/OneDrive/Desktop/Shreesh/Car_Black_Box.X/car_black_box_def.c:
      +                           288:       once=1;
  7203  048D  3001               	movlw	1
  7204  048E  00CA               	movwf	change_password@once
  7205  048F  3000               	movlw	0
  7206  0490  00CB               	movwf	change_password@once+1
  7207  0491                     l3530:
  7208                           
  7209                           ;C:/Users/Shreesh Kulkarni/OneDrive/Desktop/Shreesh/Car_Black_Box.X/car_black_box_def.c:
      +                           290:     if(pos<4 && once){
  7210  0491  084D               	movf	change_password@pos+1,w
  7211  0492  3A80               	xorlw	128
  7212  0493  00FF               	movwf	btemp+1
  7213  0494  3080               	movlw	128
  7214  0495  027F               	subwf	btemp+1,w
  7215  0496  1D03               	skipz
  7216  0497  2C9A               	goto	u2765
  7217  0498  3004               	movlw	4
  7218  0499  024C               	subwf	change_password@pos,w
  7219  049A                     u2765:
  7220  049A  1803               	skipnc
  7221  049B  2C9D               	goto	u2761
  7222  049C  2C9E               	goto	u2760
  7223  049D                     u2761:
  7224  049D  2CC4               	goto	l3542
  7225  049E                     u2760:
  7226  049E                     l3532:
  7227  049E  1283               	bcf	3,5	;RP0=0, select bank0
  7228  049F  1303               	bcf	3,6	;RP1=0, select bank0
  7229  04A0  084A               	movf	change_password@once,w
  7230  04A1  044B               	iorwf	change_password@once+1,w
  7231  04A2  1903               	btfsc	3,2
  7232  04A3  2CA5               	goto	u2771
  7233  04A4  2CA6               	goto	u2770
  7234  04A5                     u2771:
  7235  04A5  2CC4               	goto	l3542
  7236  04A6                     u2770:
  7237  04A6                     l3534:
  7238                           
  7239                           ;C:/Users/Shreesh Kulkarni/OneDrive/Desktop/Shreesh/Car_Black_Box.X/car_black_box_def.c:
      +                           291:         once=0;
  7240  04A6  01CA               	clrf	change_password@once
  7241  04A7  01CB               	clrf	change_password@once+1
  7242  04A8                     l3536:
  7243                           
  7244                           ;C:/Users/Shreesh Kulkarni/OneDrive/Desktop/Shreesh/Car_Black_Box.X/car_black_box_def.c:
      +                           292:         clcd_print("Enter new password",(0x80 + 0));
  7245  04A8  3000               	movlw	low (STR_24| (0+32768))
  7246  04A9  00F6               	movwf	clcd_print@str
  7247  04AA  3088               	movlw	high (STR_24| (0+32768))
  7248  04AB  00F7               	movwf	clcd_print@str+1
  7249  04AC  3080               	movlw	128
  7250  04AD  00A7               	movwf	??_change_password
  7251  04AE  0827               	movf	??_change_password,w
  7252  04AF  00F8               	movwf	clcd_print@addr
  7253  04B0  120A  158A  2300  120A  118A  	fcall	_clcd_print
  7254  04B5                     l3538:
  7255                           
  7256                           ;C:/Users/Shreesh Kulkarni/OneDrive/Desktop/Shreesh/Car_Black_Box.X/car_black_box_def.c:
      +                           293:         clcd_write((0xC0 + 0),0);
  7257  04B5  01F2               	clrf	clcd_write@mode
  7258  04B6  30C0               	movlw	192
  7259  04B7  120A  118A  27DF  120A  118A  	fcall	_clcd_write
  7260  04BC                     l3540:
  7261                           
  7262                           ;C:/Users/Shreesh Kulkarni/OneDrive/Desktop/Shreesh/Car_Black_Box.X/car_black_box_def.c:
      +                           294:         clcd_write(0x0F, 0);
  7263  04BC  01F2               	clrf	clcd_write@mode
  7264  04BD  300F               	movlw	15
  7265  04BE  120A  118A  27DF  120A  118A  	fcall	_clcd_write
  7266                           
  7267                           ;C:/Users/Shreesh Kulkarni/OneDrive/Desktop/Shreesh/Car_Black_Box.X/car_black_box_def.c:
      +                           296:     }
  7268  04C3  2D01               	goto	l3556
  7269  04C4                     l3542:
  7270  04C4  1283               	bcf	3,5	;RP0=0, select bank0
  7271  04C5  1303               	bcf	3,6	;RP1=0, select bank0
  7272  04C6  084D               	movf	change_password@pos+1,w
  7273  04C7  3A80               	xorlw	128
  7274  04C8  00FF               	movwf	btemp+1
  7275  04C9  3080               	movlw	128
  7276  04CA  027F               	subwf	btemp+1,w
  7277  04CB  1D03               	skipz
  7278  04CC  2CCF               	goto	u2785
  7279  04CD  3004               	movlw	4
  7280  04CE  024C               	subwf	change_password@pos,w
  7281  04CF                     u2785:
  7282  04CF  1C03               	skipc
  7283  04D0  2CD2               	goto	u2781
  7284  04D1  2CD3               	goto	u2780
  7285  04D2                     u2781:
  7286  04D2  2D01               	goto	l3556
  7287  04D3                     u2780:
  7288  04D3                     l3544:
  7289  04D3  1283               	bcf	3,5	;RP0=0, select bank0
  7290  04D4  1303               	bcf	3,6	;RP1=0, select bank0
  7291  04D5  084A               	movf	change_password@once,w
  7292  04D6  044B               	iorwf	change_password@once+1,w
  7293  04D7  1D03               	btfss	3,2
  7294  04D8  2CDA               	goto	u2791
  7295  04D9  2CDB               	goto	u2790
  7296  04DA                     u2791:
  7297  04DA  2D01               	goto	l3556
  7298  04DB                     u2790:
  7299  04DB                     l3546:
  7300                           
  7301                           ;C:/Users/Shreesh Kulkarni/OneDrive/Desktop/Shreesh/Car_Black_Box.X/car_black_box_def.c:
      +                           298:         once=1;
  7302  04DB  3001               	movlw	1
  7303  04DC  00CA               	movwf	change_password@once
  7304  04DD  3000               	movlw	0
  7305  04DE  00CB               	movwf	change_password@once+1
  7306  04DF                     l3548:
  7307                           
  7308                           ;C:/Users/Shreesh Kulkarni/OneDrive/Desktop/Shreesh/Car_Black_Box.X/car_black_box_def.c:
      +                           299:         clear_screen();
  7309  04DF  120A  158A  2141  120A  118A  	fcall	_clear_screen
  7310  04E4                     l3550:
  7311                           
  7312                           ;C:/Users/Shreesh Kulkarni/OneDrive/Desktop/Shreesh/Car_Black_Box.X/car_black_box_def.c:
      +                           300:         clcd_print("re-enter pwd",(0x80 + 0));
  7313  04E4  30C1               	movlw	low (STR_25| (0+32768))
  7314  04E5  00F6               	movwf	clcd_print@str
  7315  04E6  3088               	movlw	high (STR_25| (0+32768))
  7316  04E7  00F7               	movwf	clcd_print@str+1
  7317  04E8  3080               	movlw	128
  7318  04E9  1283               	bcf	3,5	;RP0=0, select bank0
  7319  04EA  1303               	bcf	3,6	;RP1=0, select bank0
  7320  04EB  00A7               	movwf	??_change_password
  7321  04EC  0827               	movf	??_change_password,w
  7322  04ED  00F8               	movwf	clcd_print@addr
  7323  04EE  120A  158A  2300  120A  118A  	fcall	_clcd_print
  7324  04F3                     l3552:
  7325                           
  7326                           ;C:/Users/Shreesh Kulkarni/OneDrive/Desktop/Shreesh/Car_Black_Box.X/car_black_box_def.c:
      +                           301:         clcd_write((0xC0 + 0),0);
  7327  04F3  01F2               	clrf	clcd_write@mode
  7328  04F4  30C0               	movlw	192
  7329  04F5  120A  118A  27DF  120A  118A  	fcall	_clcd_write
  7330  04FA                     l3554:
  7331                           
  7332                           ;C:/Users/Shreesh Kulkarni/OneDrive/Desktop/Shreesh/Car_Black_Box.X/car_black_box_def.c:
      +                           302:         clcd_write(0x0F, 0);
  7333  04FA  01F2               	clrf	clcd_write@mode
  7334  04FB  300F               	movlw	15
  7335  04FC  120A  118A  27DF  120A  118A  	fcall	_clcd_write
  7336  0501                     l3556:
  7337                           
  7338                           ;C:/Users/Shreesh Kulkarni/OneDrive/Desktop/Shreesh/Car_Black_Box.X/car_black_box_def.c:
      +                           306:     if (key==0x37)
  7339  0501  3037               	movlw	55
  7340  0502  1283               	bcf	3,5	;RP0=0, select bank0
  7341  0503  1303               	bcf	3,6	;RP1=0, select bank0
  7342  0504  062A               	xorwf	change_password@key,w
  7343  0505  1D03               	btfss	3,2
  7344  0506  2D08               	goto	u2801
  7345  0507  2D09               	goto	u2800
  7346  0508                     u2801:
  7347  0508  2D26               	goto	l3564
  7348  0509                     u2800:
  7349  0509                     l3558:
  7350                           
  7351                           ;C:/Users/Shreesh Kulkarni/OneDrive/Desktop/Shreesh/Car_Black_Box.X/car_black_box_def.c:
      +                           307:     {;C:/Users/Shreesh Kulkarni/OneDrive/Desktop/Shreesh/Car_Black_Box.X/car_black
      +                          _box_def.c: 308:         pwd[pos]='4';
  7352  0509  3034               	movlw	52
  7353  050A  00A7               	movwf	??_change_password
  7354  050B  084C               	movf	change_password@pos,w
  7355  050C  3EAB               	addlw	(low (change_password@pwd| 0))& (0+255)
  7356  050D  0084               	movwf	4
  7357  050E  0827               	movf	??_change_password,w
  7358  050F  1383               	bcf	3,7	;select IRP bank1
  7359  0510  0080               	movwf	0
  7360  0511                     l3560:
  7361                           
  7362                           ;C:/Users/Shreesh Kulkarni/OneDrive/Desktop/Shreesh/Car_Black_Box.X/car_black_box_def.c:
      +                           309:         clcd_putch('*',(0xC0 + pos%4));
  7363  0511  084C               	movf	change_password@pos,w
  7364  0512  3903               	andlw	3
  7365  0513  3EC0               	addlw	192
  7366  0514  00A7               	movwf	??_change_password
  7367  0515  0827               	movf	??_change_password,w
  7368  0516  00A4               	movwf	clcd_putch@addr
  7369  0517  302A               	movlw	42
  7370  0518  120A  158A  218D  120A  118A  	fcall	_clcd_putch
  7371  051D                     l3562:
  7372                           
  7373                           ;C:/Users/Shreesh Kulkarni/OneDrive/Desktop/Shreesh/Car_Black_Box.X/car_black_box_def.c:
      +                           310:         pos++;
  7374  051D  3001               	movlw	1
  7375  051E  1283               	bcf	3,5	;RP0=0, select bank0
  7376  051F  1303               	bcf	3,6	;RP1=0, select bank0
  7377  0520  07CC               	addwf	change_password@pos,f
  7378  0521  1803               	skipnc
  7379  0522  0ACD               	incf	change_password@pos+1,f
  7380  0523  3000               	movlw	0
  7381  0524  07CD               	addwf	change_password@pos+1,f
  7382                           
  7383                           ;C:/Users/Shreesh Kulkarni/OneDrive/Desktop/Shreesh/Car_Black_Box.X/car_black_box_def.c:
      +                           311:     }
  7384  0525  2D41               	goto	l3572
  7385  0526                     l3564:
  7386  0526  302F               	movlw	47
  7387  0527  062A               	xorwf	change_password@key,w
  7388  0528  1D03               	btfss	3,2
  7389  0529  2D2B               	goto	u2811
  7390  052A  2D2C               	goto	u2810
  7391  052B                     u2811:
  7392  052B  2D41               	goto	l3572
  7393  052C                     u2810:
  7394  052C                     l3566:
  7395                           
  7396                           ;C:/Users/Shreesh Kulkarni/OneDrive/Desktop/Shreesh/Car_Black_Box.X/car_black_box_def.c:
      +                           313:     {;C:/Users/Shreesh Kulkarni/OneDrive/Desktop/Shreesh/Car_Black_Box.X/car_black
      +                          _box_def.c: 314:         pwd[pos]='2';
  7397  052C  3032               	movlw	50
  7398  052D  00A7               	movwf	??_change_password
  7399  052E  084C               	movf	change_password@pos,w
  7400  052F  3EAB               	addlw	(low (change_password@pwd| 0))& (0+255)
  7401  0530  0084               	movwf	4
  7402  0531  0827               	movf	??_change_password,w
  7403  0532  1383               	bcf	3,7	;select IRP bank1
  7404  0533  0080               	movwf	0
  7405  0534                     l3568:
  7406                           
  7407                           ;C:/Users/Shreesh Kulkarni/OneDrive/Desktop/Shreesh/Car_Black_Box.X/car_black_box_def.c:
      +                           315:         clcd_putch('*',(0xC0 + pos%4));
  7408  0534  084C               	movf	change_password@pos,w
  7409  0535  3903               	andlw	3
  7410  0536  3EC0               	addlw	192
  7411  0537  00A7               	movwf	??_change_password
  7412  0538  0827               	movf	??_change_password,w
  7413  0539  00A4               	movwf	clcd_putch@addr
  7414  053A  302A               	movlw	42
  7415  053B  120A  158A  218D  120A  118A  	fcall	_clcd_putch
  7416  0540  2D1D               	goto	l3562
  7417  0541                     l3572:
  7418                           
  7419                           ;C:/Users/Shreesh Kulkarni/OneDrive/Desktop/Shreesh/Car_Black_Box.X/car_black_box_def.c:
      +                           318:     if(pos==8)
  7420  0541  3008               	movlw	8
  7421  0542  064C               	xorwf	change_password@pos,w
  7422  0543  044D               	iorwf	change_password@pos+1,w
  7423  0544  1D03               	btfss	3,2
  7424  0545  2D47               	goto	u2821
  7425  0546  2D48               	goto	u2820
  7426  0547                     u2821:
  7427  0547  2DF8               	goto	l3618
  7428  0548                     u2820:
  7429  0548                     l3574:
  7430                           
  7431                           ;C:/Users/Shreesh Kulkarni/OneDrive/Desktop/Shreesh/Car_Black_Box.X/car_black_box_def.c:
      +                           319:     {;C:/Users/Shreesh Kulkarni/OneDrive/Desktop/Shreesh/Car_Black_Box.X/car_black
      +                          _box_def.c: 320:         if(strncmp(pwd,&pwd[4],4)==0)
  7432  0548  30AF               	movlw	(low ((change_password@pwd| 0+4)))& (0+255)
  7433  0549  00A7               	movwf	??_change_password
  7434  054A  0827               	movf	??_change_password,w
  7435  054B  00F2               	movwf	strncmp@s2
  7436  054C  3004               	movlw	4
  7437  054D  00F3               	movwf	strncmp@len
  7438  054E  3000               	movlw	0
  7439  054F  00F4               	movwf	strncmp@len+1
  7440  0550  30AB               	movlw	(low (change_password@pwd| 0))& (0+255)
  7441  0551  120A  158A  23D3  120A  118A  	fcall	_strncmp
  7442  0556  0872               	movf	?_strncmp,w
  7443  0557  0473               	iorwf	?_strncmp+1,w
  7444  0558  1D03               	btfss	3,2
  7445  0559  2D5B               	goto	u2831
  7446  055A  2D5C               	goto	u2830
  7447  055B                     u2831:
  7448  055B  2DC6               	goto	l3604
  7449  055C                     u2830:
  7450  055C                     l3576:
  7451                           
  7452                           ;C:/Users/Shreesh Kulkarni/OneDrive/Desktop/Shreesh/Car_Black_Box.X/car_black_box_def.c:
      +                           321:         {;C:/Users/Shreesh Kulkarni/OneDrive/Desktop/Shreesh/Car_Black_Box.X/car_b
      +                          lack_box_def.c: 323:             for(int i=0;i<4;i++){
  7453  055C  1283               	bcf	3,5	;RP0=0, select bank0
  7454  055D  1303               	bcf	3,6	;RP1=0, select bank0
  7455  055E  01AB               	clrf	change_password@i
  7456  055F  01AC               	clrf	change_password@i+1
  7457  0560                     l3582:
  7458                           
  7459                           ;C:/Users/Shreesh Kulkarni/OneDrive/Desktop/Shreesh/Car_Black_Box.X/car_black_box_def.c:
      +                           324:                 eeprom_write(i,pwd[i]);
  7460  0560  1283               	bcf	3,5	;RP0=0, select bank0
  7461  0561  1303               	bcf	3,6	;RP1=0, select bank0
  7462  0562  082B               	movf	change_password@i,w
  7463  0563  3EAB               	addlw	(low (change_password@pwd| 0))& (0+255)
  7464  0564  0084               	movwf	4
  7465  0565  1383               	bcf	3,7	;select IRP bank1
  7466  0566  0800               	movf	0,w
  7467  0567  00A7               	movwf	??_change_password
  7468  0568  0827               	movf	??_change_password,w
  7469  0569  00F2               	movwf	eeprom_write@value
  7470  056A  082B               	movf	change_password@i,w
  7471  056B  120A  158A  22A6  120A  118A  	fcall	_eeprom_write
  7472  0570                     l3584:
  7473                           
  7474                           ;C:/Users/Shreesh Kulkarni/OneDrive/Desktop/Shreesh/Car_Black_Box.X/car_black_box_def.c:
      +                           326:             }
  7475  0570  3001               	movlw	1
  7476  0571  1283               	bcf	3,5	;RP0=0, select bank0
  7477  0572  1303               	bcf	3,6	;RP1=0, select bank0
  7478  0573  07AB               	addwf	change_password@i,f
  7479  0574  1803               	skipnc
  7480  0575  0AAC               	incf	change_password@i+1,f
  7481  0576  3000               	movlw	0
  7482  0577  07AC               	addwf	change_password@i+1,f
  7483  0578                     l3586:
  7484  0578  082C               	movf	change_password@i+1,w
  7485  0579  3A80               	xorlw	128
  7486  057A  00FF               	movwf	btemp+1
  7487  057B  3080               	movlw	128
  7488  057C  027F               	subwf	btemp+1,w
  7489  057D  1D03               	skipz
  7490  057E  2D81               	goto	u2845
  7491  057F  3004               	movlw	4
  7492  0580  022B               	subwf	change_password@i,w
  7493  0581                     u2845:
  7494  0581  1C03               	skipc
  7495  0582  2D84               	goto	u2841
  7496  0583  2D85               	goto	u2840
  7497  0584                     u2841:
  7498  0584  2D60               	goto	l3582
  7499  0585                     u2840:
  7500  0585                     l3588:
  7501                           
  7502                           ;C:/Users/Shreesh Kulkarni/OneDrive/Desktop/Shreesh/Car_Black_Box.X/car_black_box_def.c:
      +                           327:             clear_screen();
  7503  0585  120A  158A  2141  120A  118A  	fcall	_clear_screen
  7504                           
  7505                           ;C:/Users/Shreesh Kulkarni/OneDrive/Desktop/Shreesh/Car_Black_Box.X/car_black_box_def.c:
      +                           328:             clcd_write(0x0C, 0);
  7506  058A  01F2               	clrf	clcd_write@mode
  7507  058B  300C               	movlw	12
  7508  058C  120A  118A  27DF  120A  118A  	fcall	_clcd_write
  7509  0591                     l3590:
  7510                           
  7511                           ;C:/Users/Shreesh Kulkarni/OneDrive/Desktop/Shreesh/Car_Black_Box.X/car_black_box_def.c:
      +                           329:             _delay((unsigned long)((100)*(20000000/4000000.0)));
  7512  0591  30A5               	movlw	165
  7513  0592  1283               	bcf	3,5	;RP0=0, select bank0
  7514  0593  1303               	bcf	3,6	;RP1=0, select bank0
  7515  0594  00A7               	movwf	??_change_password
  7516  0595                     u3197:
  7517  0595  0BA7               	decfsz	??_change_password,f
  7518  0596  2D95               	goto	u3197
  7519  0597  2D98               	nop2
  7520  0598                     l3592:
  7521                           
  7522                           ;C:/Users/Shreesh Kulkarni/OneDrive/Desktop/Shreesh/Car_Black_Box.X/car_black_box_def.c:
      +                           330:             clcd_print("Password changed",(0x80 + 0));
  7523  0598  3024               	movlw	low (STR_26| (0+32768))
  7524  0599  00F6               	movwf	clcd_print@str
  7525  059A  3088               	movlw	high (STR_26| (0+32768))
  7526  059B  00F7               	movwf	clcd_print@str+1
  7527  059C  3080               	movlw	128
  7528  059D  1283               	bcf	3,5	;RP0=0, select bank0
  7529  059E  1303               	bcf	3,6	;RP1=0, select bank0
  7530  059F  00A7               	movwf	??_change_password
  7531  05A0  0827               	movf	??_change_password,w
  7532  05A1  00F8               	movwf	clcd_print@addr
  7533  05A2  120A  158A  2300  120A  118A  	fcall	_clcd_print
  7534  05A7                     l3594:
  7535                           
  7536                           ;C:/Users/Shreesh Kulkarni/OneDrive/Desktop/Shreesh/Car_Black_Box.X/car_black_box_def.c:
      +                           331:             clcd_print("Successfully",(0xC0 + 0));
  7537  05A7  30CE               	movlw	low (STR_23| (0+32768))
  7538  05A8  00F6               	movwf	clcd_print@str
  7539  05A9  3088               	movlw	high (STR_23| (0+32768))
  7540  05AA  00F7               	movwf	clcd_print@str+1
  7541  05AB  30C0               	movlw	192
  7542  05AC  1283               	bcf	3,5	;RP0=0, select bank0
  7543  05AD  1303               	bcf	3,6	;RP1=0, select bank0
  7544  05AE  00A7               	movwf	??_change_password
  7545  05AF  0827               	movf	??_change_password,w
  7546  05B0  00F8               	movwf	clcd_print@addr
  7547  05B1  120A  158A  2300  120A  118A  	fcall	_clcd_print
  7548  05B6                     l3596:
  7549                           
  7550                           ;C:/Users/Shreesh Kulkarni/OneDrive/Desktop/Shreesh/Car_Black_Box.X/car_black_box_def.c:
      +                           332:             _delay((unsigned long)((3000)*(20000000/4000.0)));
  7551  05B6  304D               	movlw	77
  7552  05B7  1283               	bcf	3,5	;RP0=0, select bank0
  7553  05B8  1303               	bcf	3,6	;RP1=0, select bank0
  7554  05B9  00A9               	movwf	??_change_password+2
  7555  05BA  3019               	movlw	25
  7556  05BB  00A8               	movwf	??_change_password+1
  7557  05BC  304F               	movlw	79
  7558  05BD  00A7               	movwf	??_change_password
  7559  05BE                     u3207:
  7560  05BE  0BA7               	decfsz	??_change_password,f
  7561  05BF  2DBE               	goto	u3207
  7562  05C0  0BA8               	decfsz	??_change_password+1,f
  7563  05C1  2DBE               	goto	u3207
  7564  05C2  0BA9               	decfsz	??_change_password+2,f
  7565  05C3  2DBE               	goto	u3207
  7566  05C4                     l3598:
  7567                           
  7568                           ;C:/Users/Shreesh Kulkarni/OneDrive/Desktop/Shreesh/Car_Black_Box.X/car_black_box_def.c:
      +                           333:             return 0x11;
  7569  05C4  3011               	movlw	17
  7570  05C5  2DF9               	goto	l376
  7571  05C6                     l3604:
  7572                           
  7573                           ;C:/Users/Shreesh Kulkarni/OneDrive/Desktop/Shreesh/Car_Black_Box.X/car_black_box_def.c:
      +                           338:         {;C:/Users/Shreesh Kulkarni/OneDrive/Desktop/Shreesh/Car_Black_Box.X/car_b
      +                          lack_box_def.c: 339:             clear_screen();
  7574  05C6  120A  158A  2141  120A  118A  	fcall	_clear_screen
  7575                           
  7576                           ;C:/Users/Shreesh Kulkarni/OneDrive/Desktop/Shreesh/Car_Black_Box.X/car_black_box_def.c:
      +                           340:             clcd_write(0x0C, 0);
  7577  05CB  01F2               	clrf	clcd_write@mode
  7578  05CC  300C               	movlw	12
  7579  05CD  120A  118A  27DF  120A  118A  	fcall	_clcd_write
  7580  05D2                     l3606:
  7581                           
  7582                           ;C:/Users/Shreesh Kulkarni/OneDrive/Desktop/Shreesh/Car_Black_Box.X/car_black_box_def.c:
      +                           341:             _delay((unsigned long)((100)*(20000000/4000000.0)));
  7583  05D2  30A5               	movlw	165
  7584  05D3  1283               	bcf	3,5	;RP0=0, select bank0
  7585  05D4  1303               	bcf	3,6	;RP1=0, select bank0
  7586  05D5  00A7               	movwf	??_change_password
  7587  05D6                     u3217:
  7588  05D6  0BA7               	decfsz	??_change_password,f
  7589  05D7  2DD6               	goto	u3217
  7590  05D8  2DD9               	nop2
  7591  05D9                     l3608:
  7592                           
  7593                           ;C:/Users/Shreesh Kulkarni/OneDrive/Desktop/Shreesh/Car_Black_Box.X/car_black_box_def.c:
      +                           342:             clcd_print("Password change",(0x80 + 0));
  7594  05D9  3066               	movlw	low (STR_28| (0+32768))
  7595  05DA  00F6               	movwf	clcd_print@str
  7596  05DB  3088               	movlw	high (STR_28| (0+32768))
  7597  05DC  00F7               	movwf	clcd_print@str+1
  7598  05DD  3080               	movlw	128
  7599  05DE  1283               	bcf	3,5	;RP0=0, select bank0
  7600  05DF  1303               	bcf	3,6	;RP1=0, select bank0
  7601  05E0  00A7               	movwf	??_change_password
  7602  05E1  0827               	movf	??_change_password,w
  7603  05E2  00F8               	movwf	clcd_print@addr
  7604  05E3  120A  158A  2300  120A  118A  	fcall	_clcd_print
  7605  05E8                     l3610:
  7606                           
  7607                           ;C:/Users/Shreesh Kulkarni/OneDrive/Desktop/Shreesh/Car_Black_Box.X/car_black_box_def.c:
      +                           343:             clcd_print("FAILED",(0xC0 + 0));
  7608  05E8  30F6               	movlw	low (STR_29| (0+32768))
  7609  05E9  00F6               	movwf	clcd_print@str
  7610  05EA  3088               	movlw	high (STR_29| (0+32768))
  7611  05EB  00F7               	movwf	clcd_print@str+1
  7612  05EC  30C0               	movlw	192
  7613  05ED  1283               	bcf	3,5	;RP0=0, select bank0
  7614  05EE  1303               	bcf	3,6	;RP1=0, select bank0
  7615  05EF  00A7               	movwf	??_change_password
  7616  05F0  0827               	movf	??_change_password,w
  7617  05F1  00F8               	movwf	clcd_print@addr
  7618  05F2  120A  158A  2300  120A  118A  	fcall	_clcd_print
  7619  05F7  2DB6               	goto	l3596
  7620  05F8                     l3618:
  7621                           
  7622                           ;C:/Users/Shreesh Kulkarni/OneDrive/Desktop/Shreesh/Car_Black_Box.X/car_black_box_def.c:
      +                           351:     return 0x10;
  7623  05F8  3010               	movlw	16
  7624  05F9                     l376:
  7625  05F9  0008               	return
  7626  05FA                     __end_of_change_password:
  7627                           
  7628                           	psect	text36
  7629  0BD3                     __ptext36:	
  7630 ;; *************** function _strncmp *****************
  7631 ;; Defined at:
  7632 ;;		line 4 in file "C:\Program Files\Microchip\xc8\v2.36\pic\sources\c90\common\strncmp.c"
  7633 ;; Parameters:    Size  Location     Type
  7634 ;;  s1              1    wreg     PTR const unsigned char 
  7635 ;;		 -> change_password@pwd(9), login@spassword(4), 
  7636 ;;  s2              1    2[COMMON] PTR const unsigned char 
  7637 ;;		 -> change_password@pwd(9), login@npassword(4), 
  7638 ;;  len             2    3[COMMON] unsigned int 
  7639 ;; Auto vars:     Size  Location     Type
  7640 ;;  s1              1    7[COMMON] PTR const unsigned char 
  7641 ;;		 -> change_password@pwd(9), login@spassword(4), 
  7642 ;; Return value:  Size  Location     Type
  7643 ;;                  2    2[COMMON] int 
  7644 ;; Registers used:
  7645 ;;		wreg, fsr0l, fsr0h, status,2, status,0
  7646 ;; Tracked objects:
  7647 ;;		On entry : 0/0
  7648 ;;		On exit  : 0/0
  7649 ;;		Unchanged: 0/0
  7650 ;; Data sizes:     COMMON   BANK0   BANK1   BANK3   BANK2
  7651 ;;      Params:         3       0       0       0       0
  7652 ;;      Locals:         1       0       0       0       0
  7653 ;;      Temps:          2       0       0       0       0
  7654 ;;      Totals:         6       0       0       0       0
  7655 ;;Total ram usage:        6 bytes
  7656 ;; Hardware stack levels used: 1
  7657 ;; Hardware stack levels required when called: 1
  7658 ;; This function calls:
  7659 ;;		Nothing
  7660 ;; This function is called by:
  7661 ;;		_login
  7662 ;;		_change_password
  7663 ;; This function uses a non-reentrant model
  7664 ;;
  7665                           
  7666  0BD3                     _strncmp:	
  7667                           ;psect for function _strncmp
  7668                           
  7669                           
  7670                           ;incstack = 0
  7671                           ; Regs used in _strncmp: [wreg-fsr0h+status,2+status,0]
  7672                           ;strncmp@s1 stored from wreg
  7673  0BD3  00F7               	movwf	strncmp@s1
  7674  0BD4                     l2338:
  7675  0BD4  2C00               	goto	l988
  7676  0BD5                     l2340:
  7677  0BD5  0877               	movf	strncmp@s1,w
  7678  0BD6  0084               	movwf	4
  7679  0BD7  1383               	bcf	3,7	;select IRP bank0
  7680  0BD8  0800               	movf	0,w
  7681  0BD9  1903               	btfsc	3,2
  7682  0BDA  2BDC               	goto	u1431
  7683  0BDB  2BDD               	goto	u1430
  7684  0BDC                     u1431:
  7685  0BDC  2BE9               	goto	l2344
  7686  0BDD                     u1430:
  7687  0BDD                     l2342:
  7688  0BDD  0872               	movf	strncmp@s2,w
  7689  0BDE  0084               	movwf	4
  7690  0BDF  0800               	movf	0,w
  7691  0BE0  00F5               	movwf	??_strncmp
  7692  0BE1  0877               	movf	strncmp@s1,w
  7693  0BE2  0084               	movwf	4
  7694  0BE3  0800               	movf	0,w
  7695  0BE4  0675               	xorwf	??_strncmp,w
  7696  0BE5  1903               	skipnz
  7697  0BE6  2BE8               	goto	u1441
  7698  0BE7  2BE9               	goto	u1440
  7699  0BE8                     u1441:
  7700  0BE8  2BF8               	goto	l2348
  7701  0BE9                     u1440:
  7702  0BE9                     l2344:
  7703  0BE9  0872               	movf	strncmp@s2,w
  7704  0BEA  0084               	movwf	4
  7705  0BEB  0800               	movf	0,w
  7706  0BEC  00F5               	movwf	??_strncmp
  7707  0BED  0877               	movf	strncmp@s1,w
  7708  0BEE  0084               	movwf	4
  7709  0BEF  0800               	movf	0,w
  7710  0BF0  00F6               	movwf	??_strncmp+1
  7711  0BF1  0875               	movf	??_strncmp,w
  7712  0BF2  0276               	subwf	??_strncmp+1,w
  7713  0BF3  00F2               	movwf	?_strncmp
  7714  0BF4  01F3               	clrf	?_strncmp+1
  7715  0BF5  1C03               	skipc
  7716  0BF6  03F3               	decf	?_strncmp+1,f
  7717  0BF7  2C10               	goto	l993
  7718  0BF8                     l2348:
  7719  0BF8  3001               	movlw	1
  7720  0BF9  00F5               	movwf	??_strncmp
  7721  0BFA  0875               	movf	??_strncmp,w
  7722  0BFB  07F7               	addwf	strncmp@s1,f
  7723  0BFC  3001               	movlw	1
  7724  0BFD  00F5               	movwf	??_strncmp
  7725  0BFE  0875               	movf	??_strncmp,w
  7726  0BFF  07F2               	addwf	strncmp@s2,f
  7727  0C00                     l988:
  7728  0C00  3001               	movlw	1
  7729  0C01  02F3               	subwf	strncmp@len,f
  7730  0C02  3000               	movlw	0
  7731  0C03  1C03               	skipc
  7732  0C04  03F4               	decf	strncmp@len+1,f
  7733  0C05  02F4               	subwf	strncmp@len+1,f
  7734  0C06  0A73               	incf	strncmp@len,w
  7735  0C07  1D03               	skipz
  7736  0C08  2C0D               	goto	u1451
  7737  0C09  0A74               	incf	strncmp@len+1,w
  7738  0C0A  1D03               	btfss	3,2
  7739  0C0B  2C0D               	goto	u1451
  7740  0C0C  2C0E               	goto	u1450
  7741  0C0D                     u1451:
  7742  0C0D  2BD5               	goto	l2340
  7743  0C0E                     u1450:
  7744  0C0E                     l2350:
  7745  0C0E  01F2               	clrf	?_strncmp
  7746  0C0F  01F3               	clrf	?_strncmp+1
  7747  0C10                     l993:
  7748  0C10  0008               	return
  7749  0C11                     __end_of_strncmp:
  7750                           
  7751                           	psect	text37
  7752  0AA6                     __ptext37:	
  7753 ;; *************** function _eeprom_write *****************
  7754 ;; Defined at:
  7755 ;;		line 6 in file "C:\Program Files\Microchip\xc8\v2.36\pic\sources\c90\pic\__eewrite.c"
  7756 ;; Parameters:    Size  Location     Type
  7757 ;;  addr            1    wreg     unsigned char 
  7758 ;;  value           1    2[COMMON] unsigned char 
  7759 ;; Auto vars:     Size  Location     Type
  7760 ;;  addr            1    4[COMMON] unsigned char 
  7761 ;; Return value:  Size  Location     Type
  7762 ;;                  1    wreg      void 
  7763 ;; Registers used:
  7764 ;;		wreg, status,2, status,0
  7765 ;; Tracked objects:
  7766 ;;		On entry : 0/0
  7767 ;;		On exit  : 0/0
  7768 ;;		Unchanged: 0/0
  7769 ;; Data sizes:     COMMON   BANK0   BANK1   BANK3   BANK2
  7770 ;;      Params:         1       0       0       0       0
  7771 ;;      Locals:         1       0       0       0       0
  7772 ;;      Temps:          1       0       0       0       0
  7773 ;;      Totals:         3       0       0       0       0
  7774 ;;Total ram usage:        3 bytes
  7775 ;; Hardware stack levels used: 1
  7776 ;; Hardware stack levels required when called: 1
  7777 ;; This function calls:
  7778 ;;		Nothing
  7779 ;; This function is called by:
  7780 ;;		_main
  7781 ;;		_log_event
  7782 ;;		_change_password
  7783 ;; This function uses a non-reentrant model
  7784 ;;
  7785                           
  7786  0AA6                     _eeprom_write:	
  7787                           ;psect for function _eeprom_write
  7788                           
  7789                           
  7790                           ;incstack = 0
  7791                           ; Regs used in _eeprom_write: [wreg+status,2+status,0]
  7792                           ;eeprom_write@addr stored from wreg
  7793  0AA6  00F4               	movwf	eeprom_write@addr
  7794  0AA7                     l520:	
  7795                           ;C:\Program Files\Microchip\xc8\v2.36\pic\sources\c90\pic\__eewrite.c: 6: eeprom_write(u
      +                          nsigned char addr, unsigned char value);C:\Program Files\Microchip\xc8\v2.36\pic\sources
      +                          \c90\pic\__eewrite.c: 7: {;C:\Program Files\Microchip\xc8\v2.36\pic\sources\c90\pic\__ee
      +                          write.c: 8:  do{ while (EECON1bits.WR) { continue; } EEADR = (addr); EEDATA = (value); E
      +                          ECON1 &= 0x3F; STATUSbits.CARRY = 0; if (INTCONbits.GIE) { STATUSbits.CARRY = 1; } INTCO
      +                          Nbits.GIE = 0; EECON1bits.WREN = 1; EECON2 = 0x55; EECON2 = 0xAA; EECON1bits.WR = 1; EEC
      +                          ON1bits.WREN = 0; if (STATUSbits.CARRY) { INTCONbits.GIE = 1; } } while (0);
  7796                           
  7797  0AA7                     l521:
  7798  0AA7  1683               	bsf	3,5	;RP0=1, select bank3
  7799  0AA8  1703               	bsf	3,6	;RP1=1, select bank3
  7800  0AA9  188C               	btfsc	12,1	;volsfr
  7801  0AAA  2AAC               	goto	u1191
  7802  0AAB  2AAD               	goto	u1190
  7803  0AAC                     u1191:
  7804  0AAC  2AA7               	goto	l521
  7805  0AAD                     u1190:
  7806  0AAD                     l2178:
  7807  0AAD  0874               	movf	eeprom_write@addr,w
  7808  0AAE  1283               	bcf	3,5	;RP0=0, select bank2
  7809  0AAF  1703               	bsf	3,6	;RP1=1, select bank2
  7810  0AB0  008D               	movwf	13	;volatile
  7811  0AB1  0872               	movf	eeprom_write@value,w
  7812  0AB2  008C               	movwf	12	;volatile
  7813  0AB3                     l2180:
  7814  0AB3  303F               	movlw	63
  7815  0AB4  00F3               	movwf	??_eeprom_write
  7816  0AB5  0873               	movf	??_eeprom_write,w
  7817  0AB6  1683               	bsf	3,5	;RP0=1, select bank3
  7818  0AB7  1703               	bsf	3,6	;RP1=1, select bank3
  7819  0AB8  058C               	andwf	12,f	;volsfr
  7820  0AB9                     l2182:
  7821  0AB9  1283               	bcf	3,5	;RP0=0, select bank0
  7822  0ABA  1303               	bcf	3,6	;RP1=0, select bank0
  7823  0ABB  1003               	bcf	3,0	;volatile
  7824  0ABC                     l2184:
  7825  0ABC  1F8B               	btfss	11,7	;volatile
  7826  0ABD  2ABF               	goto	u1201
  7827  0ABE  2AC0               	goto	u1200
  7828  0ABF                     u1201:
  7829  0ABF  2AC1               	goto	l524
  7830  0AC0                     u1200:
  7831  0AC0                     l2186:
  7832  0AC0  1403               	bsf	3,0	;volatile
  7833  0AC1                     l524:
  7834  0AC1  138B               	bcf	11,7	;volatile
  7835  0AC2  1683               	bsf	3,5	;RP0=1, select bank3
  7836  0AC3  1703               	bsf	3,6	;RP1=1, select bank3
  7837  0AC4  150C               	bsf	12,2	;volsfr
  7838  0AC5                     l2188:
  7839  0AC5  3055               	movlw	85
  7840  0AC6  008D               	movwf	13	;volsfr
  7841  0AC7  30AA               	movlw	170
  7842  0AC8  008D               	movwf	13	;volsfr
  7843  0AC9                     l2190:
  7844  0AC9  148C               	bsf	12,1	;volsfr
  7845  0ACA                     l2192:
  7846  0ACA  110C               	bcf	12,2	;volsfr
  7847  0ACB                     l2194:
  7848  0ACB  1283               	bcf	3,5	;RP0=0, select bank0
  7849  0ACC  1303               	bcf	3,6	;RP1=0, select bank0
  7850  0ACD  1C03               	btfss	3,0	;volatile
  7851  0ACE  2AD0               	goto	u1211
  7852  0ACF  2AD1               	goto	u1210
  7853  0AD0                     u1211:
  7854  0AD0  2AD2               	goto	l527
  7855  0AD1                     u1210:
  7856  0AD1                     l2196:
  7857  0AD1  178B               	bsf	11,7	;volatile
  7858  0AD2                     l527:
  7859  0AD2  0008               	return
  7860  0AD3                     __end_of_eeprom_write:
  7861                           
  7862                           	psect	text38
  7863  0941                     __ptext38:	
  7864 ;; *************** function _clear_screen *****************
  7865 ;; Defined at:
  7866 ;;		line 89 in file "C:/Users/Shreesh Kulkarni/OneDrive/Desktop/Shreesh/Car_Black_Box.X/car_black_box_def.c"
  7867 ;; Parameters:    Size  Location     Type
  7868 ;;		None
  7869 ;; Auto vars:     Size  Location     Type
  7870 ;;		None
  7871 ;; Return value:  Size  Location     Type
  7872 ;;                  1    wreg      void 
  7873 ;; Registers used:
  7874 ;;		wreg, status,2, status,0, pclath, cstack
  7875 ;; Tracked objects:
  7876 ;;		On entry : 0/0
  7877 ;;		On exit  : 0/0
  7878 ;;		Unchanged: 0/0
  7879 ;; Data sizes:     COMMON   BANK0   BANK1   BANK3   BANK2
  7880 ;;      Params:         0       0       0       0       0
  7881 ;;      Locals:         0       0       0       0       0
  7882 ;;      Temps:          1       0       0       0       0
  7883 ;;      Totals:         1       0       0       0       0
  7884 ;;Total ram usage:        1 bytes
  7885 ;; Hardware stack levels used: 1
  7886 ;; Hardware stack levels required when called: 2
  7887 ;; This function calls:
  7888 ;;		_clcd_write
  7889 ;; This function is called by:
  7890 ;;		_main
  7891 ;;		_login
  7892 ;;		_login_menu
  7893 ;;		_change_password
  7894 ;; This function uses a non-reentrant model
  7895 ;;
  7896                           
  7897  0941                     _clear_screen:	
  7898                           ;psect for function _clear_screen
  7899                           
  7900  0941                     l3294:	
  7901                           ;incstack = 0
  7902                           ; Regs used in _clear_screen: [wreg+status,2+status,0+pclath+cstack]
  7903                           
  7904                           
  7905                           ;C:/Users/Shreesh Kulkarni/OneDrive/Desktop/Shreesh/Car_Black_Box.X/car_black_box_def.c:
      +                           90:     clcd_write(0x01, 0);
  7906  0941  01F2               	clrf	clcd_write@mode
  7907  0942  3001               	movlw	1
  7908  0943  120A  118A  27DF  120A  158A  	fcall	_clcd_write
  7909  0948                     l3296:
  7910                           
  7911                           ;C:/Users/Shreesh Kulkarni/OneDrive/Desktop/Shreesh/Car_Black_Box.X/car_black_box_def.c:
      +                           91:     _delay((unsigned long)((100)*(20000000/4000000.0)));
  7912  0948  30A6               	movlw	166
  7913  0949  00F6               	movwf	??_clear_screen
  7914  094A                     u3227:
  7915  094A  0BF6               	decfsz	??_clear_screen,f
  7916  094B  294A               	goto	u3227
  7917  094C  0000               	nop
  7918  094D                     l301:
  7919  094D  0008               	return
  7920  094E                     __end_of_clear_screen:
  7921                           
  7922                           	psect	text39
  7923  098D                     __ptext39:	
  7924 ;; *************** function _clcd_putch *****************
  7925 ;; Defined at:
  7926 ;;		line 59 in file "C:/Users/Shreesh Kulkarni/OneDrive/Desktop/Shreesh/Car_Black_Box.X/clcd.c"
  7927 ;; Parameters:    Size  Location     Type
  7928 ;;  data            1    wreg     const unsigned char 
  7929 ;;  addr            1    4[BANK0 ] unsigned char 
  7930 ;; Auto vars:     Size  Location     Type
  7931 ;;  data            1    5[BANK0 ] const unsigned char 
  7932 ;; Return value:  Size  Location     Type
  7933 ;;                  1    wreg      void 
  7934 ;; Registers used:
  7935 ;;		wreg, status,2, status,0, pclath, cstack
  7936 ;; Tracked objects:
  7937 ;;		On entry : 0/0
  7938 ;;		On exit  : 0/0
  7939 ;;		Unchanged: 0/0
  7940 ;; Data sizes:     COMMON   BANK0   BANK1   BANK3   BANK2
  7941 ;;      Params:         0       1       0       0       0
  7942 ;;      Locals:         0       1       0       0       0
  7943 ;;      Temps:          0       0       0       0       0
  7944 ;;      Totals:         0       2       0       0       0
  7945 ;;Total ram usage:        2 bytes
  7946 ;; Hardware stack levels used: 1
  7947 ;; Hardware stack levels required when called: 2
  7948 ;; This function calls:
  7949 ;;		_clcd_write
  7950 ;; This function is called by:
  7951 ;;		_display_time
  7952 ;;		_display_dash_board
  7953 ;;		_login
  7954 ;;		_login_menu
  7955 ;;		_view_log
  7956 ;;		_change_password
  7957 ;; This function uses a non-reentrant model
  7958 ;;
  7959                           
  7960  098D                     _clcd_putch:	
  7961                           ;psect for function _clcd_putch
  7962                           
  7963                           
  7964                           ;incstack = 0
  7965                           ; Regs used in _clcd_putch: [wreg+status,2+status,0+pclath+cstack]
  7966                           ;clcd_putch@data stored from wreg
  7967  098D  1283               	bcf	3,5	;RP0=0, select bank0
  7968  098E  1303               	bcf	3,6	;RP1=0, select bank0
  7969  098F  00A5               	movwf	clcd_putch@data
  7970  0990                     l3224:
  7971                           
  7972                           ;C:/Users/Shreesh Kulkarni/OneDrive/Desktop/Shreesh/Car_Black_Box.X/clcd.c: 59: void clc
      +                          d_putch(const char data, unsigned char addr);C:/Users/Shreesh Kulkarni/OneDrive/Desktop/
      +                          Shreesh/Car_Black_Box.X/clcd.c: 60: {;C:/Users/Shreesh Kulkarni/OneDrive/Desktop/Shreesh
      +                          /Car_Black_Box.X/clcd.c: 61:     clcd_write(addr, 0);
  7973  0990  01F2               	clrf	clcd_write@mode
  7974  0991  0824               	movf	clcd_putch@addr,w
  7975  0992  120A  118A  27DF  120A  158A  	fcall	_clcd_write
  7976                           
  7977                           ;C:/Users/Shreesh Kulkarni/OneDrive/Desktop/Shreesh/Car_Black_Box.X/clcd.c: 62:     clcd
      +                          _write(data, 1);
  7978  0997  01F2               	clrf	clcd_write@mode
  7979  0998  0AF2               	incf	clcd_write@mode,f
  7980  0999  1283               	bcf	3,5	;RP0=0, select bank0
  7981  099A  1303               	bcf	3,6	;RP1=0, select bank0
  7982  099B  0825               	movf	clcd_putch@data,w
  7983  099C  120A  118A  27DF  120A  158A  	fcall	_clcd_write
  7984  09A1                     l139:
  7985  09A1  0008               	return
  7986  09A2                     __end_of_clcd_putch:
  7987                           
  7988                           	psect	text40
  7989  0B00                     __ptext40:	
  7990 ;; *************** function _clcd_print *****************
  7991 ;; Defined at:
  7992 ;;		line 65 in file "C:/Users/Shreesh Kulkarni/OneDrive/Desktop/Shreesh/Car_Black_Box.X/clcd.c"
  7993 ;; Parameters:    Size  Location     Type
  7994 ;;  str             2    6[COMMON] PTR const unsigned char 
  7995 ;;		 -> STR_29(7), STR_28(16), STR_27(13), STR_26(17), 
  7996 ;;		 -> STR_25(13), STR_24(19), STR_23(13), STR_22(13), 
  7997 ;;		 -> STR_21(8), STR_20(16), STR_19(16), STR_18(15), 
  7998 ;;		 -> STR_17(16), STR_16(16), STR_15(17), STR_14(15), 
  7999 ;;		 -> STR_13(10), STR_12(9), STR_9(17), STR_8(16), 
  8000 ;;		 -> main@event(3), 
  8001 ;;  addr            1    8[COMMON] unsigned char 
  8002 ;; Auto vars:     Size  Location     Type
  8003 ;;		None
  8004 ;; Return value:  Size  Location     Type
  8005 ;;                  1    wreg      void 
  8006 ;; Registers used:
  8007 ;;		wreg, fsr0l, fsr0h, status,2, status,0, btemp+1, pclath, cstack
  8008 ;; Tracked objects:
  8009 ;;		On entry : 0/0
  8010 ;;		On exit  : 0/0
  8011 ;;		Unchanged: 0/0
  8012 ;; Data sizes:     COMMON   BANK0   BANK1   BANK3   BANK2
  8013 ;;      Params:         3       0       0       0       0
  8014 ;;      Locals:         0       0       0       0       0
  8015 ;;      Temps:          0       0       0       0       0
  8016 ;;      Totals:         3       0       0       0       0
  8017 ;;Total ram usage:        3 bytes
  8018 ;; Hardware stack levels used: 1
  8019 ;; Hardware stack levels required when called: 2
  8020 ;; This function calls:
  8021 ;;		_clcd_write
  8022 ;; This function is called by:
  8023 ;;		_main
  8024 ;;		_display_dash_board
  8025 ;;		_login
  8026 ;;		_login_menu
  8027 ;;		_view_log
  8028 ;;		_clear_log
  8029 ;;		_change_password
  8030 ;; This function uses a non-reentrant model
  8031 ;;
  8032                           
  8033  0B00                     _clcd_print:	
  8034                           ;psect for function _clcd_print
  8035                           
  8036  0B00                     l3286:	
  8037                           ;incstack = 0
  8038                           ; Regs used in _clcd_print: [wreg-fsr0h+status,2+status,0+btemp+1+pclath+cstack]
  8039                           
  8040                           
  8041                           ;C:/Users/Shreesh Kulkarni/OneDrive/Desktop/Shreesh/Car_Black_Box.X/clcd.c: 65: void clc
      +                          d_print(const char *str, unsigned char addr);C:/Users/Shreesh Kulkarni/OneDrive/Desktop/
      +                          Shreesh/Car_Black_Box.X/clcd.c: 66: {;C:/Users/Shreesh Kulkarni/OneDrive/Desktop/Shreesh
      +                          /Car_Black_Box.X/clcd.c: 67:     clcd_write(addr, 0);
  8042  0B00  01F2               	clrf	clcd_write@mode
  8043  0B01  0878               	movf	clcd_print@addr,w
  8044  0B02  120A  118A  27DF  120A  158A  	fcall	_clcd_write
  8045                           
  8046                           ;C:/Users/Shreesh Kulkarni/OneDrive/Desktop/Shreesh/Car_Black_Box.X/clcd.c: 69:     whil
      +                          e (*str != '\0')
  8047  0B07  2B1E               	goto	l3292
  8048  0B08                     l3288:
  8049                           
  8050                           ;C:/Users/Shreesh Kulkarni/OneDrive/Desktop/Shreesh/Car_Black_Box.X/clcd.c: 70:     {;C:
      +                          /Users/Shreesh Kulkarni/OneDrive/Desktop/Shreesh/Car_Black_Box.X/clcd.c: 71:         clc
      +                          d_write(*str, 1);
  8051  0B08  01F2               	clrf	clcd_write@mode
  8052  0B09  0AF2               	incf	clcd_write@mode,f
  8053  0B0A  0877               	movf	clcd_print@str+1,w
  8054  0B0B  00FF               	movwf	btemp+1
  8055  0B0C  0876               	movf	clcd_print@str,w
  8056  0B0D  0084               	movwf	4
  8057  0B0E  120A  158A  2118  120A  158A  	fcall	stringtab
  8058  0B13  120A  118A  27DF  120A  158A  	fcall	_clcd_write
  8059  0B18                     l3290:
  8060                           
  8061                           ;C:/Users/Shreesh Kulkarni/OneDrive/Desktop/Shreesh/Car_Black_Box.X/clcd.c: 72:         
      +                          str++;
  8062  0B18  3001               	movlw	1
  8063  0B19  07F6               	addwf	clcd_print@str,f
  8064  0B1A  1803               	skipnc
  8065  0B1B  0AF7               	incf	clcd_print@str+1,f
  8066  0B1C  3000               	movlw	0
  8067  0B1D  07F7               	addwf	clcd_print@str+1,f
  8068  0B1E                     l3292:
  8069                           
  8070                           ;C:/Users/Shreesh Kulkarni/OneDrive/Desktop/Shreesh/Car_Black_Box.X/clcd.c: 69:     whil
      +                          e (*str != '\0')
  8071  0B1E  0877               	movf	clcd_print@str+1,w
  8072  0B1F  1283               	bcf	3,5	;RP0=0, select bank0
  8073  0B20  1303               	bcf	3,6	;RP1=0, select bank0
  8074  0B21  00FF               	movwf	btemp+1
  8075  0B22  0876               	movf	clcd_print@str,w
  8076  0B23  0084               	movwf	4
  8077  0B24  120A  158A  2118  120A  158A  	fcall	stringtab
  8078  0B29  3A00               	xorlw	0
  8079  0B2A  1D03               	skipz
  8080  0B2B  2B2D               	goto	u2481
  8081  0B2C  2B2E               	goto	u2480
  8082  0B2D                     u2481:
  8083  0B2D  2B08               	goto	l3288
  8084  0B2E                     u2480:
  8085  0B2E                     l145:
  8086  0B2E  0008               	return
  8087  0B2F                     __end_of_clcd_print:
  8088                           
  8089                           	psect	text41
  8090  07DF                     __ptext41:	
  8091 ;; *************** function _clcd_write *****************
  8092 ;; Defined at:
  8093 ;;		line 12 in file "C:/Users/Shreesh Kulkarni/OneDrive/Desktop/Shreesh/Car_Black_Box.X/clcd.c"
  8094 ;; Parameters:    Size  Location     Type
  8095 ;;  byte            1    wreg     unsigned char 
  8096 ;;  mode            1    2[COMMON] unsigned char 
  8097 ;; Auto vars:     Size  Location     Type
  8098 ;;  byte            1    5[COMMON] unsigned char 
  8099 ;; Return value:  Size  Location     Type
  8100 ;;                  1    wreg      void 
  8101 ;; Registers used:
  8102 ;;		wreg
  8103 ;; Tracked objects:
  8104 ;;		On entry : 0/0
  8105 ;;		On exit  : 0/0
  8106 ;;		Unchanged: 0/0
  8107 ;; Data sizes:     COMMON   BANK0   BANK1   BANK3   BANK2
  8108 ;;      Params:         1       0       0       0       0
  8109 ;;      Locals:         1       0       0       0       0
  8110 ;;      Temps:          2       0       0       0       0
  8111 ;;      Totals:         4       0       0       0       0
  8112 ;;Total ram usage:        4 bytes
  8113 ;; Hardware stack levels used: 1
  8114 ;; Hardware stack levels required when called: 1
  8115 ;; This function calls:
  8116 ;;		Nothing
  8117 ;; This function is called by:
  8118 ;;		_init_display_controller
  8119 ;;		_clcd_putch
  8120 ;;		_clcd_print
  8121 ;;		_main
  8122 ;;		_clear_screen
  8123 ;;		_login
  8124 ;;		_change_password
  8125 ;; This function uses a non-reentrant model
  8126 ;;
  8127                           
  8128  07DF                     _clcd_write:	
  8129                           ;psect for function _clcd_write
  8130                           
  8131                           
  8132                           ;incstack = 0
  8133                           ; Regs used in _clcd_write: [wreg]
  8134                           ;clcd_write@byte stored from wreg
  8135  07DF  00F5               	movwf	clcd_write@byte
  8136  07E0                     l3194:
  8137                           
  8138                           ;C:/Users/Shreesh Kulkarni/OneDrive/Desktop/Shreesh/Car_Black_Box.X/clcd.c: 12: void clc
      +                          d_write(unsigned char byte, unsigned char mode);C:/Users/Shreesh Kulkarni/OneDrive/Deskt
      +                          op/Shreesh/Car_Black_Box.X/clcd.c: 13: {;C:/Users/Shreesh Kulkarni/OneDrive/Desktop/Shre
      +                          esh/Car_Black_Box.X/clcd.c: 14:     RE2 = mode;
  8139  07E0  1872               	btfsc	clcd_write@mode,0
  8140  07E1  2FE3               	goto	u2351
  8141  07E2  2FE7               	goto	u2350
  8142  07E3                     u2351:
  8143  07E3  1283               	bcf	3,5	;RP0=0, select bank0
  8144  07E4  1303               	bcf	3,6	;RP1=0, select bank0
  8145  07E5  1509               	bsf	9,2	;volatile
  8146  07E6  2FEA               	goto	u2364
  8147  07E7                     u2350:
  8148  07E7  1283               	bcf	3,5	;RP0=0, select bank0
  8149  07E8  1303               	bcf	3,6	;RP1=0, select bank0
  8150  07E9  1109               	bcf	9,2	;volatile
  8151  07EA                     u2364:
  8152  07EA                     l3196:
  8153                           
  8154                           ;C:/Users/Shreesh Kulkarni/OneDrive/Desktop/Shreesh/Car_Black_Box.X/clcd.c: 15:     PORT
      +                          D = byte;
  8155  07EA  0875               	movf	clcd_write@byte,w
  8156  07EB  0088               	movwf	8	;volatile
  8157  07EC                     l3198:
  8158                           
  8159                           ;C:/Users/Shreesh Kulkarni/OneDrive/Desktop/Shreesh/Car_Black_Box.X/clcd.c: 17:     RE1 
      +                          = 1;
  8160  07EC  1489               	bsf	9,1	;volatile
  8161                           
  8162                           ;C:/Users/Shreesh Kulkarni/OneDrive/Desktop/Shreesh/Car_Black_Box.X/clcd.c: 18:     _del
      +                          ay((unsigned long)((100)*(20000000/4000000.0)));
  8163  07ED  30A6               	movlw	166
  8164  07EE  00F3               	movwf	??_clcd_write
  8165  07EF                     u3237:
  8166  07EF  0BF3               	decfsz	??_clcd_write,f
  8167  07F0  2FEF               	goto	u3237
  8168  07F1  0000               	nop
  8169  07F2                     l3200:
  8170                           
  8171                           ;C:/Users/Shreesh Kulkarni/OneDrive/Desktop/Shreesh/Car_Black_Box.X/clcd.c: 19:     RE1 
      +                          = 0;
  8172  07F2  1283               	bcf	3,5	;RP0=0, select bank0
  8173  07F3  1303               	bcf	3,6	;RP1=0, select bank0
  8174  07F4  1089               	bcf	9,1	;volatile
  8175                           
  8176                           ;C:/Users/Shreesh Kulkarni/OneDrive/Desktop/Shreesh/Car_Black_Box.X/clcd.c: 21:     _del
      +                          ay((unsigned long)((4100)*(20000000/4000000.0)));
  8177  07F5  301B               	movlw	27
  8178  07F6  00F4               	movwf	??_clcd_write+1
  8179  07F7  309E               	movlw	158
  8180  07F8  00F3               	movwf	??_clcd_write
  8181  07F9                     u3247:
  8182  07F9  0BF3               	decfsz	??_clcd_write,f
  8183  07FA  2FF9               	goto	u3247
  8184  07FB  0BF4               	decfsz	??_clcd_write+1,f
  8185  07FC  2FF9               	goto	u3247
  8186  07FD  0000               	nop
  8187  07FE                     l130:
  8188  07FE  0008               	return
  8189  07FF                     __end_of_clcd_write:
  8190                           
  8191                           	psect	text42
  8192  0C11                     __ptext42:	
  8193 ;; *************** function ___lwdiv *****************
  8194 ;; Defined at:
  8195 ;;		line 5 in file "C:\Program Files\Microchip\xc8\v2.36\pic\sources\c90\common\lwdiv.c"
  8196 ;; Parameters:    Size  Location     Type
  8197 ;;  divisor         2    0[BANK0 ] unsigned int 
  8198 ;;  dividend        2    2[BANK0 ] unsigned int 
  8199 ;; Auto vars:     Size  Location     Type
  8200 ;;  quotient        2    5[BANK0 ] unsigned int 
  8201 ;;  counter         1    4[BANK0 ] unsigned char 
  8202 ;; Return value:  Size  Location     Type
  8203 ;;                  2    0[BANK0 ] unsigned int 
  8204 ;; Registers used:
  8205 ;;		wreg, status,2, status,0
  8206 ;; Tracked objects:
  8207 ;;		On entry : 0/0
  8208 ;;		On exit  : 0/0
  8209 ;;		Unchanged: 0/0
  8210 ;; Data sizes:     COMMON   BANK0   BANK1   BANK3   BANK2
  8211 ;;      Params:         0       4       0       0       0
  8212 ;;      Locals:         0       3       0       0       0
  8213 ;;      Temps:          1       0       0       0       0
  8214 ;;      Totals:         1       7       0       0       0
  8215 ;;Total ram usage:        8 bytes
  8216 ;; Hardware stack levels used: 1
  8217 ;; Hardware stack levels required when called: 1
  8218 ;; This function calls:
  8219 ;;		Nothing
  8220 ;; This function is called by:
  8221 ;;		_main
  8222 ;; This function uses a non-reentrant model
  8223 ;;
  8224                           
  8225  0C11                     ___lwdiv:	
  8226                           ;psect for function ___lwdiv
  8227                           
  8228  0C11                     l3622:	
  8229                           ;incstack = 0
  8230                           ; Regs used in ___lwdiv: [wreg+status,2+status,0]
  8231                           
  8232  0C11  1283               	bcf	3,5	;RP0=0, select bank0
  8233  0C12  1303               	bcf	3,6	;RP1=0, select bank0
  8234  0C13  01A5               	clrf	___lwdiv@quotient
  8235  0C14  01A6               	clrf	___lwdiv@quotient+1
  8236  0C15                     l3624:
  8237  0C15  0820               	movf	___lwdiv@divisor,w
  8238  0C16  0421               	iorwf	___lwdiv@divisor+1,w
  8239  0C17  1903               	btfsc	3,2
  8240  0C18  2C1A               	goto	u2851
  8241  0C19  2C1B               	goto	u2850
  8242  0C1A                     u2851:
  8243  0C1A  2C52               	goto	l3644
  8244  0C1B                     u2850:
  8245  0C1B                     l3626:
  8246  0C1B  01A4               	clrf	___lwdiv@counter
  8247  0C1C  0AA4               	incf	___lwdiv@counter,f
  8248  0C1D  2C29               	goto	l3632
  8249  0C1E                     l3628:
  8250  0C1E  3001               	movlw	1
  8251  0C1F                     u2865:
  8252  0C1F  1003               	clrc
  8253  0C20  0DA0               	rlf	___lwdiv@divisor,f
  8254  0C21  0DA1               	rlf	___lwdiv@divisor+1,f
  8255  0C22  3EFF               	addlw	-1
  8256  0C23  1D03               	skipz
  8257  0C24  2C1F               	goto	u2865
  8258  0C25                     l3630:
  8259  0C25  3001               	movlw	1
  8260  0C26  00F6               	movwf	??___lwdiv
  8261  0C27  0876               	movf	??___lwdiv,w
  8262  0C28  07A4               	addwf	___lwdiv@counter,f
  8263  0C29                     l3632:
  8264  0C29  1FA1               	btfss	___lwdiv@divisor+1,7
  8265  0C2A  2C2C               	goto	u2871
  8266  0C2B  2C2D               	goto	u2870
  8267  0C2C                     u2871:
  8268  0C2C  2C1E               	goto	l3628
  8269  0C2D                     u2870:
  8270  0C2D                     l3634:
  8271  0C2D  3001               	movlw	1
  8272  0C2E                     u2885:
  8273  0C2E  1003               	clrc
  8274  0C2F  0DA5               	rlf	___lwdiv@quotient,f
  8275  0C30  0DA6               	rlf	___lwdiv@quotient+1,f
  8276  0C31  3EFF               	addlw	-1
  8277  0C32  1D03               	skipz
  8278  0C33  2C2E               	goto	u2885
  8279  0C34  0821               	movf	___lwdiv@divisor+1,w
  8280  0C35  0223               	subwf	___lwdiv@dividend+1,w
  8281  0C36  1D03               	skipz
  8282  0C37  2C3A               	goto	u2895
  8283  0C38  0820               	movf	___lwdiv@divisor,w
  8284  0C39  0222               	subwf	___lwdiv@dividend,w
  8285  0C3A                     u2895:
  8286  0C3A  1C03               	skipc
  8287  0C3B  2C3D               	goto	u2891
  8288  0C3C  2C3E               	goto	u2890
  8289  0C3D                     u2891:
  8290  0C3D  2C45               	goto	l3640
  8291  0C3E                     u2890:
  8292  0C3E                     l3636:
  8293  0C3E  0820               	movf	___lwdiv@divisor,w
  8294  0C3F  02A2               	subwf	___lwdiv@dividend,f
  8295  0C40  0821               	movf	___lwdiv@divisor+1,w
  8296  0C41  1C03               	skipc
  8297  0C42  03A3               	decf	___lwdiv@dividend+1,f
  8298  0C43  02A3               	subwf	___lwdiv@dividend+1,f
  8299  0C44                     l3638:
  8300  0C44  1425               	bsf	___lwdiv@quotient,0
  8301  0C45                     l3640:
  8302  0C45  3001               	movlw	1
  8303  0C46                     u2905:
  8304  0C46  1003               	clrc
  8305  0C47  0CA1               	rrf	___lwdiv@divisor+1,f
  8306  0C48  0CA0               	rrf	___lwdiv@divisor,f
  8307  0C49  3EFF               	addlw	-1
  8308  0C4A  1D03               	skipz
  8309  0C4B  2C46               	goto	u2905
  8310  0C4C                     l3642:
  8311  0C4C  3001               	movlw	1
  8312  0C4D  02A4               	subwf	___lwdiv@counter,f
  8313  0C4E  1D03               	btfss	3,2
  8314  0C4F  2C51               	goto	u2911
  8315  0C50  2C52               	goto	u2910
  8316  0C51                     u2911:
  8317  0C51  2C2D               	goto	l3634
  8318  0C52                     u2910:
  8319  0C52                     l3644:
  8320  0C52  0826               	movf	___lwdiv@quotient+1,w
  8321  0C53  00A1               	movwf	?___lwdiv+1
  8322  0C54  0825               	movf	___lwdiv@quotient,w
  8323  0C55  00A0               	movwf	?___lwdiv
  8324  0C56                     l803:
  8325  0C56  0008               	return
  8326  0C57                     __end_of___lwdiv:
  8327                           
  8328                           	psect	text43
  8329  0B2F                     __ptext43:	
  8330 ;; *************** function _isr *****************
  8331 ;; Defined at:
  8332 ;;		line 14 in file "C:/Users/Shreesh Kulkarni/OneDrive/Desktop/Shreesh/Car_Black_Box.X/isr.c"
  8333 ;; Parameters:    Size  Location     Type
  8334 ;;		None
  8335 ;; Auto vars:     Size  Location     Type
  8336 ;;		None
  8337 ;; Return value:  Size  Location     Type
  8338 ;;                  1    wreg      void 
  8339 ;; Registers used:
  8340 ;;		wreg, status,2, status,0
  8341 ;; Tracked objects:
  8342 ;;		On entry : 0/0
  8343 ;;		On exit  : 0/0
  8344 ;;		Unchanged: 0/0
  8345 ;; Data sizes:     COMMON   BANK0   BANK1   BANK3   BANK2
  8346 ;;      Params:         0       0       0       0       0
  8347 ;;      Locals:         0       0       0       0       0
  8348 ;;      Temps:          2       0       0       0       0
  8349 ;;      Totals:         2       0       0       0       0
  8350 ;;Total ram usage:        2 bytes
  8351 ;; Hardware stack levels used: 1
  8352 ;; This function calls:
  8353 ;;		Nothing
  8354 ;; This function is called by:
  8355 ;;		Interrupt level 1
  8356 ;; This function uses a non-reentrant model
  8357 ;;
  8358                           
  8359  0B2F                     _isr:	
  8360                           ;psect for function _isr
  8361                           
  8362  0B2F                     i1l3014:
  8363                           
  8364                           ;C:/Users/Shreesh Kulkarni/OneDrive/Desktop/Shreesh/Car_Black_Box.X/isr.c: 16:     stati
      +                          c unsigned int count = 0;;C:/Users/Shreesh Kulkarni/OneDrive/Desktop/Shreesh/Car_Black_B
      +                          ox.X/isr.c: 18:     if (TMR2IF == 1)
  8365  0B2F  1283               	bcf	3,5	;RP0=0, select bank0
  8366  0B30  1303               	bcf	3,6	;RP1=0, select bank0
  8367  0B31  1C8C               	btfss	12,1	;volatile
  8368  0B32  2B34               	goto	u227_21
  8369  0B33  2B35               	goto	u227_20
  8370  0B34                     u227_21:
  8371  0B34  2B5B               	goto	i1l408
  8372  0B35                     u227_20:
  8373  0B35                     i1l3016:
  8374                           
  8375                           ;C:/Users/Shreesh Kulkarni/OneDrive/Desktop/Shreesh/Car_Black_Box.X/isr.c: 19:     {;C:/
      +                          Users/Shreesh Kulkarni/OneDrive/Desktop/Shreesh/Car_Black_Box.X/isr.c: 20:         if (+
      +                          +count == 1250)
  8376  0B35  3001               	movlw	1
  8377  0B36  07F9               	addwf	isr@count,f
  8378  0B37  1803               	skipnc
  8379  0B38  0AFA               	incf	isr@count+1,f
  8380  0B39  3000               	movlw	0
  8381  0B3A  07FA               	addwf	isr@count+1,f
  8382  0B3B  30E2               	movlw	226
  8383  0B3C  0679               	xorwf	isr@count,w
  8384  0B3D  3004               	movlw	4
  8385  0B3E  1903               	skipnz
  8386  0B3F  067A               	xorwf	isr@count+1,w
  8387  0B40  1D03               	btfss	3,2
  8388  0B41  2B43               	goto	u228_21
  8389  0B42  2B44               	goto	u228_20
  8390  0B43                     u228_21:
  8391  0B43  2B5A               	goto	i1l3030
  8392  0B44                     u228_20:
  8393  0B44                     i1l3018:
  8394                           
  8395                           ;C:/Users/Shreesh Kulkarni/OneDrive/Desktop/Shreesh/Car_Black_Box.X/isr.c: 21:         {
      +                          ;C:/Users/Shreesh Kulkarni/OneDrive/Desktop/Shreesh/Car_Black_Box.X/isr.c: 22:          
      +                             count = 0;
  8396  0B44  01F9               	clrf	isr@count
  8397  0B45  01FA               	clrf	isr@count+1
  8398  0B46                     i1l3020:
  8399                           
  8400                           ;C:/Users/Shreesh Kulkarni/OneDrive/Desktop/Shreesh/Car_Black_Box.X/isr.c: 23:          
      +                             if(sec>0){
  8401  0B46  0854               	movf	_sec,w
  8402  0B47  1903               	btfsc	3,2
  8403  0B48  2B4A               	goto	u229_21
  8404  0B49  2B4B               	goto	u229_20
  8405  0B4A                     u229_21:
  8406  0B4A  2B4E               	goto	i1l3024
  8407  0B4B                     u229_20:
  8408  0B4B                     i1l3022:
  8409                           
  8410                           ;C:/Users/Shreesh Kulkarni/OneDrive/Desktop/Shreesh/Car_Black_Box.X/isr.c: 24:          
      +                                 sec--;
  8411  0B4B  3001               	movlw	1
  8412  0B4C  02D4               	subwf	_sec,f
  8413                           
  8414                           ;C:/Users/Shreesh Kulkarni/OneDrive/Desktop/Shreesh/Car_Black_Box.X/isr.c: 25:          
      +                             }
  8415  0B4D  2B5A               	goto	i1l3030
  8416  0B4E                     i1l3024:
  8417  0B4E  0854               	movf	_sec,w
  8418  0B4F  1D03               	btfss	3,2
  8419  0B50  2B52               	goto	u230_21
  8420  0B51  2B53               	goto	u230_20
  8421  0B52                     u230_21:
  8422  0B52  2B5A               	goto	i1l3030
  8423  0B53                     u230_20:
  8424  0B53                     i1l3026:
  8425  0B53  0855               	movf	_return_time,w
  8426  0B54  1903               	btfsc	3,2
  8427  0B55  2B57               	goto	u231_21
  8428  0B56  2B58               	goto	u231_20
  8429  0B57                     u231_21:
  8430  0B57  2B5A               	goto	i1l3030
  8431  0B58                     u231_20:
  8432  0B58                     i1l3028:
  8433                           
  8434                           ;C:/Users/Shreesh Kulkarni/OneDrive/Desktop/Shreesh/Car_Black_Box.X/isr.c: 27:          
      +                                 return_time--;
  8435  0B58  3001               	movlw	1
  8436  0B59  02D5               	subwf	_return_time,f
  8437  0B5A                     i1l3030:
  8438                           
  8439                           ;C:/Users/Shreesh Kulkarni/OneDrive/Desktop/Shreesh/Car_Black_Box.X/isr.c: 32:         T
      +                          MR2IF = 0;
  8440  0B5A  108C               	bcf	12,1	;volatile
  8441  0B5B                     i1l408:
  8442  0B5B  0871               	movf	??_isr+1,w
  8443  0B5C  008A               	movwf	10
  8444  0B5D  0E70               	swapf	??_isr,w
  8445  0B5E  0083               	movwf	3
  8446  0B5F  0EFE               	swapf	btemp,f
  8447  0B60  0E7E               	swapf	btemp,w
  8448  0B61  0009               	retfie
  8449  0B62                     __end_of_isr:
  8450  007E                     btemp	set	126	;btemp
  8451  007E                     wtemp0	set	126
  8452                           
  8453                           	psect	intentry
  8454  0004                     __pintentry:	
  8455                           ;incstack = 0
  8456                           ; Regs used in _isr: [wreg+status,2+status,0]
  8457                           
  8458  0004                     interrupt_function:
  8459  007E                     saved_w	set	btemp
  8460  0004  00FE               	movwf	btemp
  8461  0005  0E03               	swapf	3,w
  8462  0006  00F0               	movwf	??_isr
  8463  0007  080A               	movf	10,w
  8464  0008  00F1               	movwf	??_isr+1
  8465  0009  120A  158A  2B2F   	ljmp	_isr
  8466                           
  8467                           	psect	idloc
  8468                           
  8469                           ;Config register IDLOC0 @ 0x2000
  8470                           ;	unspecified, using default values
  8471  2000                     	org	8192
  8472  2000  3FFF               	dw	16383
  8473                           
  8474                           ;Config register IDLOC1 @ 0x2001
  8475                           ;	unspecified, using default values
  8476  2001                     	org	8193
  8477  2001  3FFF               	dw	16383
  8478                           
  8479                           ;Config register IDLOC2 @ 0x2002
  8480                           ;	unspecified, using default values
  8481  2002                     	org	8194
  8482  2002  3FFF               	dw	16383
  8483                           
  8484                           ;Config register IDLOC3 @ 0x2003
  8485                           ;	unspecified, using default values
  8486  2003                     	org	8195
  8487  2003  3FFF               	dw	16383
  8488                           
  8489                           	psect	config
  8490                           
  8491                           ;Config register CONFIG @ 0x2007
  8492                           ;	Oscillator Selection bits
  8493                           ;	FOSC = 0x3, unprogrammed default
  8494                           ;	Watchdog Timer Enable bit
  8495                           ;	WDTE = OFF, WDT disabled
  8496                           ;	Power-up Timer Enable bit
  8497                           ;	PWRTE = 0x1, unprogrammed default
  8498                           ;	Brown-out Reset Enable bit
  8499                           ;	BOREN = 0x1, unprogrammed default
  8500                           ;	Low-Voltage (Single-Supply) In-Circuit Serial Programming Enable bit
  8501                           ;	LVP = 0x1, unprogrammed default
  8502                           ;	Data EEPROM Memory Code Protection bit
  8503                           ;	CPD = 0x1, unprogrammed default
  8504                           ;	Flash Program Memory Write Enable bits
  8505                           ;	WRT = 0x3, unprogrammed default
  8506                           ;	In-Circuit Debugger Mode bit
  8507                           ;	DEBUG = 0x1, unprogrammed default
  8508                           ;	Flash Program Memory Code Protection bit
  8509                           ;	CP = 0x1, unprogrammed default
  8510  2007                     	org	8199
  8511  2007  3FFB               	dw	16379

Data Sizes:
    Strings     280
    Constant    0
    Data        23
    BSS         52
    Persistent  0
    Stack       0

Auto Spaces:
    Space          Size  Autos    Used
    COMMON           14      9      12
    BANK0            80     39      79
    BANK1            80      0      32
    BANK3            96      0       0
    BANK2            96      0       0

Pointer List with Targets:

    strncpy@from	PTR const unsigned char  size(2) Largest target is 8192
		 -> ROM(CODE[8192]), time(BANK0[7]), 

    strncpy@to	PTR unsigned char  size(1) Largest target is 11
		 -> log(BANK1[11]), 

    strncpy@cp	PTR unsigned char  size(1) Largest target is 11
		 -> log(BANK1[11]), 

    strncmp@s2	PTR const unsigned char  size(1) Largest target is 9
		 -> change_password@pwd(BANK1[9]), login@npassword(BANK0[4]), 

    strncmp@s1	PTR const unsigned char  size(1) Largest target is 9
		 -> change_password@pwd(BANK1[9]), login@spassword(BANK0[4]), 

    strcpy@from	PTR const unsigned char  size(2) Largest target is 3
		 -> STR_7(CODE[3]), STR_6(CODE[3]), STR_5(CODE[3]), STR_4(CODE[3]), 
		 -> STR_3(CODE[3]), STR_2(CODE[3]), STR_1(CODE[3]), 

    strcpy@to	PTR unsigned char  size(1) Largest target is 3
		 -> main@event(BANK0[3]), 

    strcpy@cp	PTR unsigned char  size(1) Largest target is 3
		 -> main@event(BANK0[3]), 

    sp__strncpy	PTR unsigned char  size(1) Largest target is 11
		 -> log(BANK1[11]), 

    display_dash_board@event	PTR unsigned char  size(1) Largest target is 3
		 -> main@event(BANK0[3]), 

    menu	PTR unsigned char [3] size(2) Largest target is 15
		 -> STR_14(CODE[15]), STR_13(CODE[10]), STR_12(CODE[9]), 

    sp__strcpy	PTR unsigned char  size(1) Largest target is 3
		 -> main@event(BANK0[3]), 

    gear	PTR unsigned char [6] size(2) Largest target is 3
		 -> STR_6(CODE[3]), STR_5(CODE[3]), STR_4(CODE[3]), STR_3(CODE[3]), 
		 -> STR_2(CODE[3]), STR_1(CODE[3]), 

    clcd_print@str	PTR const unsigned char  size(2) Largest target is 19
		 -> STR_29(CODE[7]), STR_28(CODE[16]), STR_27(CODE[13]), STR_26(CODE[17]), 
		 -> STR_25(CODE[13]), STR_24(CODE[19]), STR_23(CODE[13]), STR_22(CODE[13]), 
		 -> STR_21(CODE[8]), STR_20(CODE[16]), STR_19(CODE[16]), STR_18(CODE[15]), 
		 -> STR_17(CODE[16]), STR_16(CODE[16]), STR_15(CODE[17]), STR_14(CODE[15]), 
		 -> STR_13(CODE[10]), STR_12(CODE[9]), STR_9(CODE[17]), STR_8(CODE[16]), 
		 -> main@event(BANK0[3]), 


Critical Paths under _main in COMMON

    _main->_clcd_print
    _view_log->___awmod
    _view_log->_clcd_print
    _login_menu->_clcd_print
    _login->___awmod
    _login->_clcd_print
    _log_car_event->___awmod
    _log_car_event->_strncpy
    _log_event->___bmul
    _init_config->_init_ds1307
    _init_i2c->___lldiv
    _init_ds1307->_read_ds1307
    _write_ds1307->_i2c_write
    _init_clcd->_init_display_controller
    _init_display_controller->_clcd_write
    _display_dash_board->___awmod
    _display_dash_board->_clcd_print
    _get_time->_read_ds1307
    _read_ds1307->_i2c_read
    _clear_log->_clcd_print
    _change_password->_clcd_print
    _clear_screen->_clcd_write
    _clcd_putch->___awmod
    _clcd_print->_clcd_write
    ___lwdiv->_read_adc

Critical Paths under _isr in COMMON

    None.

Critical Paths under _main in BANK0

    _main->_view_log
    _view_log->_clcd_putch
    _login_menu->_clcd_putch
    _login->_clcd_putch
    _log_car_event->___awdiv
    _init_config->_init_i2c
    _init_i2c->___lldiv
    _display_dash_board->_display_time
    _display_time->_clcd_putch
    _change_password->_clcd_putch
    _clcd_putch->___awdiv

Critical Paths under _isr in BANK0

    None.

Critical Paths under _main in BANK1

    None.

Critical Paths under _isr in BANK1

    None.

Critical Paths under _main in BANK3

    None.

Critical Paths under _isr in BANK3

    None.

Critical Paths under _main in BANK2

    None.

Critical Paths under _isr in BANK2

    None.

Call Graph Tables:

 ---------------------------------------------------------------------------------
 (Depth) Function   	        Calls       Base Space   Used Autos Params    Refs
 ---------------------------------------------------------------------------------
 (0) _main                                                14    14      0  108944
                                             25 BANK0     14    14      0
                            ___lwdiv
                    _change_password
                         _clcd_print
                         _clcd_write
                          _clear_log
                       _clear_screen
                 _display_dash_board
                       _eeprom_write
                        _init_config
                      _log_car_event
                              _login
                         _login_menu
                           _read_adc
                _read_digital_keypad
                             _strcpy
                           _view_log
 ---------------------------------------------------------------------------------
 (1) _view_log                                            19    18      1   13363
                                              6 BANK0     19    18      1
                            ___awmod
                             ___bmul
                         _clcd_print
                         _clcd_putch
                        _eeprom_read
 ---------------------------------------------------------------------------------
 (2) _strcpy                                               5     3      2     402
                                              2 COMMON     5     3      2
 ---------------------------------------------------------------------------------
 (1) _read_digital_keypad                                  2     2      0      22
                                              2 COMMON     2     2      0
 ---------------------------------------------------------------------------------
 (1) _read_adc                                             4     2      2      23
                                              2 COMMON     4     2      2
 ---------------------------------------------------------------------------------
 (1) _login_menu                                           5     4      1   14117
                                              6 BANK0      5     4      1
                         _clcd_print
                         _clcd_putch
                       _clear_screen
 ---------------------------------------------------------------------------------
 (1) _login                                                7     6      1   18448
                                              6 BANK0      7     6      1
                            ___awdiv
                            ___awmod
                         _clcd_print
                         _clcd_putch
                         _clcd_write
                       _clear_screen
                        _eeprom_read
                            _strncmp
 ---------------------------------------------------------------------------------
 (2) _eeprom_read                                          2     2      0      22
                                              2 COMMON     2     2      0
 ---------------------------------------------------------------------------------
 (1) _log_car_event                                        5     4      1    3479
                                              4 BANK0      5     4      1
                            ___awdiv
                            ___awmod
                           _get_time
                          _log_event
                            _strncpy
 ---------------------------------------------------------------------------------
 (3) _strncpy                                              9     5      4     511
                                              2 COMMON     7     3      4
                                              0 BANK0      2     2      0
 ---------------------------------------------------------------------------------
 (2) _log_event                                            5     5      0     814
                                              6 COMMON     2     2      0
                                              0 BANK0      3     3      0
                             ___bmul
                       _eeprom_write
 ---------------------------------------------------------------------------------
 (2) ___bmul                                               4     3      1     244
                                              2 COMMON     4     3      1
 ---------------------------------------------------------------------------------
 (1) _init_config                                          0     0      0    3266
                           _init_adc
                          _init_clcd
                _init_digital_keypad
                        _init_ds1307
                           _init_i2c
                        _init_timer2
 ---------------------------------------------------------------------------------
 (2) _init_timer2                                          0     0      0       0
 ---------------------------------------------------------------------------------
 (2) _init_i2c                                             8     4      4     542
                                              8 BANK0      8     4      4
                            ___lldiv
 ---------------------------------------------------------------------------------
 (3) ___lldiv                                             14     6      8     421
                                              2 COMMON     6     6      0
                                              0 BANK0      8     0      8
 ---------------------------------------------------------------------------------
 (2) _init_ds1307                                          2     2      0     412
                                              8 COMMON     1     1      0
                                              0 BANK0      1     1      0
                        _read_ds1307
                       _write_ds1307
 ---------------------------------------------------------------------------------
 (3) _write_ds1307                                         2     1      1     183
                                              3 COMMON     2     1      1
                          _i2c_start
                           _i2c_stop
                          _i2c_write
 ---------------------------------------------------------------------------------
 (2) _init_digital_keypad                                  0     0      0       0
 ---------------------------------------------------------------------------------
 (2) _init_clcd                                            0     0      0    2312
            _init_display_controller
 ---------------------------------------------------------------------------------
 (3) _init_display_controller                              2     2      0    2312
                                              6 COMMON     2     2      0
                         _clcd_write
 ---------------------------------------------------------------------------------
 (2) _init_adc                                             0     0      0       0
 ---------------------------------------------------------------------------------
 (1) _display_dash_board                                   5     4      1   18616
                                              7 BANK0      5     4      1
                            ___awdiv
                            ___awmod
                         _clcd_print
                         _clcd_putch
                       _display_time
 ---------------------------------------------------------------------------------
 (2) _display_time                                         1     1      0    5415
                                              6 BANK0      1     1      0
                         _clcd_putch
                           _get_time
 ---------------------------------------------------------------------------------
 (2) _get_time                                             2     2      0     161
                                              0 BANK0      2     2      0
                        _read_ds1307
 ---------------------------------------------------------------------------------
 (3) _read_ds1307                                          3     3      0     161
                                              5 COMMON     3     3      0
                           _i2c_read
                      _i2c_rep_start
                          _i2c_start
                           _i2c_stop
                          _i2c_write
 ---------------------------------------------------------------------------------
 (4) _i2c_write                                            1     1      0      31
                                              2 COMMON     1     1      0
                  _i2c_wait_for_idle
 ---------------------------------------------------------------------------------
 (4) _i2c_rep_start                                        0     0      0       0
                          _i2c_start
                           _i2c_stop
 ---------------------------------------------------------------------------------
 (4) _i2c_stop                                             0     0      0       0
                  _i2c_wait_for_idle
 ---------------------------------------------------------------------------------
 (4) _i2c_start                                            0     0      0       0
                  _i2c_wait_for_idle
 ---------------------------------------------------------------------------------
 (4) _i2c_read                                             3     3      0      65
                                              2 COMMON     3     3      0
                  _i2c_wait_for_idle
 ---------------------------------------------------------------------------------
 (5) _i2c_wait_for_idle                                    0     0      0       0
 ---------------------------------------------------------------------------------
 (2) ___awmod                                              7     3      4     754
                                              2 COMMON     7     3      4
 ---------------------------------------------------------------------------------
 (2) ___awdiv                                              9     5      4     606
                                              2 COMMON     5     1      4
                                              0 BANK0      4     4      0
 ---------------------------------------------------------------------------------
 (1) _clear_log                                            4     4      0    6399
                                              0 BANK0      4     4      0
                         _clcd_print
 ---------------------------------------------------------------------------------
 (1) _change_password                                      7     6      1   17563
                                              6 BANK0      7     6      1
                         _clcd_print
                         _clcd_putch
                         _clcd_write
                       _clear_screen
                       _eeprom_write
                            _strncmp
 ---------------------------------------------------------------------------------
 (2) _strncmp                                              6     3      3     504
                                              2 COMMON     6     3      3
 ---------------------------------------------------------------------------------
 (3) _eeprom_write                                         3     2      1     500
                                              2 COMMON     3     2      1
 ---------------------------------------------------------------------------------
 (2) _clear_screen                                         1     1      0    2312
                                              6 COMMON     1     1      0
                         _clcd_write
 ---------------------------------------------------------------------------------
 (2) _clcd_putch                                           2     1      1    5254
                                              4 BANK0      2     1      1
                            ___awdiv (ARG)
                            ___awmod (ARG)
                         _clcd_write
 ---------------------------------------------------------------------------------
 (2) _clcd_print                                           3     0      3    6368
                                              6 COMMON     3     0      3
                         _clcd_write
 ---------------------------------------------------------------------------------
 (3) _clcd_write                                           4     3      1    2312
                                              2 COMMON     4     3      1
 ---------------------------------------------------------------------------------
 (1) ___lwdiv                                              8     4      4     421
                                              6 COMMON     1     1      0
                                              0 BANK0      7     3      4
                           _read_adc (ARG)
 ---------------------------------------------------------------------------------
 Estimated maximum stack depth 5
 ---------------------------------------------------------------------------------
 (Depth) Function   	        Calls       Base Space   Used Autos Params    Refs
 ---------------------------------------------------------------------------------
 (8) _isr                                                  2     2      0       0
                                              0 COMMON     2     2      0
 ---------------------------------------------------------------------------------
 Estimated maximum stack depth 8
 ---------------------------------------------------------------------------------

 Call Graph Graphs:

 _main (ROOT)
   ___lwdiv
     _read_adc (ARG)
   _change_password
     _clcd_print
       _clcd_write
     _clcd_putch
       ___awdiv (ARG)
       ___awmod (ARG)
       _clcd_write (ARG)
     _clcd_write
     _clear_screen
       _clcd_write
     _eeprom_write
     _strncmp
   _clcd_print
   _clcd_write
   _clear_log
     _clcd_print
   _clear_screen
   _display_dash_board
     ___awdiv
     ___awmod
     _clcd_print
     _clcd_putch
     _display_time
       _clcd_putch
       _get_time
         _read_ds1307
           _i2c_read
             _i2c_wait_for_idle
           _i2c_rep_start
             _i2c_start
               _i2c_wait_for_idle
             _i2c_stop
               _i2c_wait_for_idle
           _i2c_start
           _i2c_stop
           _i2c_write
             _i2c_wait_for_idle
   _eeprom_write
   _init_config
     _init_adc
     _init_clcd
       _init_display_controller
         _clcd_write
     _init_digital_keypad
     _init_ds1307
       _read_ds1307
       _write_ds1307
         _i2c_start
         _i2c_stop
         _i2c_write
     _init_i2c
       ___lldiv
     _init_timer2
   _log_car_event
     ___awdiv
     ___awmod
     _get_time
     _log_event
       ___bmul
       _eeprom_write
     _strncpy
   _login
     ___awdiv
     ___awmod
     _clcd_print
     _clcd_putch
     _clcd_write
     _clear_screen
     _eeprom_read
     _strncmp
   _login_menu
     _clcd_print
     _clcd_putch
     _clear_screen
   _read_adc
   _read_digital_keypad
   _strcpy
   _view_log
     ___awmod
     ___bmul
     _clcd_print
     _clcd_putch
     _eeprom_read

 _isr (ROOT)

 Address spaces:
Name               Size   Autos  Total    Cost      Usage
BANK3               60      0       0       9        0.0%
BITBANK3            60      0       0       8        0.0%
SFR3                 0      0       0       4        0.0%
BITSFR3              0      0       0       4        0.0%
BANK2               60      0       0      11        0.0%
BITBANK2            60      0       0      10        0.0%
SFR2                 0      0       0       5        0.0%
BITSFR2              0      0       0       5        0.0%
BANK1               50      0      20       7       40.0%
BITBANK1            50      0       0       6        0.0%
SFR1                 0      0       0       2        0.0%
BITSFR1              0      0       0       2        0.0%
BANK0               50     27      4F       5       98.8%
BITBANK0            50      0       0       4        0.0%
SFR0                 0      0       0       1        0.0%
BITSFR0              0      0       0       1        0.0%
COMMON               E      9       C       1       85.7%
BITCOMMON            E      0       0       0        0.0%
CODE                 0      0       0       0        0.0%
DATA                 0      0      7B      12        0.0%
ABS                  0      0      7B       3        0.0%
NULL                 0      0       0       0        0.0%
STACK                0      0       0       2        0.0%
EEDATA             100      0       0       0        0.0%


Microchip Technology PIC Macro Assembler V2.36 build 20220127204148 
Symbol Table                                                                                   Thu Apr 07 17:48:07 2022

                              l7 17BE                                pc 0002                   ___bmul@product 0074  
                 clcd_print@addr 0078                               l13 0A7A                               l32 17C5  
                             l35 096B                               l61 0A06                               l38 0979  
                             l55 09E8                               l58 0AFF                               l90 0B95  
                             l93 094E                               l96 095A                               _GO 00FA  
                             l99 17D6                     ___awdiv@sign 0021                               fsr 0004  
            clear_log@reset_flag 0023               login_menu@menu_pos 0051                              l110 0A29  
                            l102 17F4                              l105 17DF                              l113 17FF  
                            l130 07FE                              l108 0A24                              l301 094D  
                            l109 0A27                              l133 0CF3                              l231 0211  
                            l215 0205                              l136 0934                              l145 0B2E  
                            l314 0481                              l139 09A1                              l501 09B8  
                            l503 09CD                              l520 0AA7                              l352 072D  
                            l521 0AA7                              l281 0E03                              l339 07DE  
                            l524 0AC1                              l356 0BD2                              l284 0EC8  
                            l390 0967                              l198 0AA5                              l527 0AD2  
                            l287 0E62                              l295 0D4B                              l376 05F9  
                            l298 0F2E                              l803 0C56                              l557 09B6  
                            l567 0F96                              l684 0FFF                              l697 0DA4  
                            l993 0C10                              l985 0A50                              _GIE 005F  
                            l988 0C00                              _RE1 0049                              _RE2 004A  
                            _PR2 0092                              _PEN 048A                              _SEN 0488  
                  ?_display_time 0070                    log_event@addr 0020                              _log 00A0  
                            _sec 0054                              _isr 0B2F                   clcd_putch@addr 0024  
                            _pos 006E                              fsr0 0004                   clcd_putch@data 0025  
                            indf 0000                     ___awmod@sign 0078               log_car_event@event 0028  
             view_log@reset_flag 0026               log_car_event@speed 0024                             l1004 0CA0  
                           l2220 09AC                             l2300 0D00                             l2222 09AE  
                           l2214 09A3                             l2310 0D27                             l2302 0D01  
                           l3200 07F2                             l2400 0D4D                             l2224 09B5  
                           l2216 09A4                             l2312 0D2D                             l2304 0D11  
                           l2320 0C5F            ??_read_digital_keypad 0072                             l2410 0D61  
                           l2402 0D51                             l3210 0CC0                             l3202 09EA  
                           l2218 09A8                             l2314 0D36                             l2306 0D14  
                           l2330 0C8E                             l2322 0C65                             l2180 0AB3  
                           l2340 0BD5                             l2420 0D79                             l2412 0D67  
                           l2404 0D56                             l3220 0CE2                             l3212 0CC5  
                           l3204 0CA1                             l2252 17B9                             l3300 0A7B  
                           l2316 0D43                             l2308 0D21                             l2332 0C92  
                           l2190 0AC9                             l2182 0AB9                             l2350 0C0E  
                           l2342 0BDD                             l2430 0D9B                             l2422 0D83  
                           l2414 0D6A                             l2406 0D58                             l3230 0DD4  
                           l2254 17BF                             l3222 0CE7                             l3214 0CCC  
                           l3206 0CA9                             l3310 0AA4                             l3302 0A94  
                           l2326 0C83                             l2318 0C5A                             l2334 09BF  
                           l3224 0990                             l2192 0ACA                             l2184 0ABC  
                           l2344 0BE9                             l2360 0FA3                             l2432 0DA0  
                           l2424 0D89                             l2416 0D71                             l2408 0D5C  
                           l3152 094E                             l3160 17D7                             l3240 0E02  
                           l3232 0DDA                             l3216 0CCF                             l3208 0CB0  
                           l3304 0A99                             l2328 0C8A                             l3320 0F29  
                           l3312 0ECC                             l3400 03A3                             l2194 0ACB  
                           l2186 0AC0                             l2178 0AAD                             l2338 0BD4  
                           l2370 0FB4                             l2362 0FA5                             l2354 0F97  
                           l2426 0D90                             l2418 0D75                             l3154 0954  
                           l3162 17DC                             l3234 0DE8                             l3226 0DA5  
                           l3322 0E07                             l3218 0CD6                             l3250 0F55  
                           l3242 0F2F                             l2290 0964                             l3306 0A9E  
                           l3314 0ED1                             l3410 0407                             l3402 03AA  
                           l3330 02EC                             l2196 0AD1                             l2188 0AC5  
                           l2348 0BF8                             l2380 0FCC                             l2372 0FBA  
                           l2364 0FA9                             l2356 0F9A                             l2428 0D96  
                           l3180 0A1B                             l3156 17CE                             l3172 17EA  
                           l3164 17F6                             l3236 0DEE                             l3228 0DC6  
                           l3324 0E14                             l3260 0F88                             l3252 0F5E  
                           l3244 0F41                             l2284 095B                             l3308 0AA3  
                           l3316 0EDF                             l3420 0442                             l3412 040E  
                           l3404 03B9                             l3340 02F8                             l3332 02F4  
                           l2460 0A79                             l2444 0A5C                             l2436 0A52  
                           l2382 0FDD                             l2374 0FBD                             l2390 0FF1  
                           l2366 0FAE                             l2358 0F9E                             l3182 0A20  
                           l3174 0A08                             l3158 17D3                             l3166 17FB  
                           l3190 0AFE                             l3238 0DFC                             l3326 0E19  
                           l3270 09DE                             l3254 0F70                             l3246 0F44  
                           l3262 0F8E                             l2286 095F                             l3318 0F28  
                           l3430 0472                             l3422 0450                             l3406 03C8  
                           l3414 0413                             l3350 0304                             l3342 02F9  
                           l3334 02F5                             l2446 0A67                             l2438 0A57  
                           l3510 0673                             l3520 0BB4                             l2392 0FF6  
                           l2384 0FE3                             l2376 0FC4                             l2368 0FB2  
                           l3184 0A28                             l3176 0A0D                             l3168 17FF  
                           l3280 092D                             l3256 0F7E                             l3248 0F51  
                           l3272 0B62                             l2288 0963                             l3432 0479  
                           l3424 0455                             l3416 0418                             l3408 03CF  
                           l3360 0329                             l3352 030A                             l3336 02F6  
                           l3344 02FD                             l3328 02E6                             l3440 0731  
                           l2464 0968                             l2448 0A6C                             l2456 0A6E  
                           l3512 0680                             l3504 064B                             l3194 07E0  
                           l3290 0B18                             l3610 05E8                             l3530 0491  
                           l3514 0B99                             l2394 0FFB                             l2386 0FE4  
                           l2378 0FC8                             l3178 0A15                             l3282 092E  
                           l3266 09CE                             l3258 0F7F                             l3274 0B65  
                           l2298 0CF4                             l3434 047C                             l3426 0464  
                           l3418 0427                             l3354 0310                             l3362 032E  
                           l3346 0302                             l3338 02F7                             l3450 0748  
                           l3442 0737                             l2466 096F                             l2458 0A77  
                           l3506 065D                             l3196 07EA                             l3292 0B1E  
                           l3604 05C6                             l3540 04BC                             l3532 049E  
                           l3524 0485                             l3516 0B9F                             l2388 0FEB  
                           l3188 0AD4                             l3284 092F                             l3268 09D9  
                           l3276 0B92                             l3428 046B                             l3436 0480  
                           l3364 0334                             l3356 0318                             l3460 075C  
                           l3452 074E                             l3444 0738                             l2492 0A2B  
                           l3508 066D                             l3700 013F                             l3630 0C25  
                           l3622 0C11                             l3198 07EC                             l3286 0B00  
                           l3294 0941                             l3606 05D2                             l3550 04E4  
                           l3534 04A6                             l3542 04C4                             l3526 048B  
                           l3518 0BA7                             l2398 0D4C                             l3278 092A  
                           l3390 0390                             l3382 0356                             l3366 033A  
                           l3374 034E                             l3358 0323                             l3470 07A3  
                           l3462 0764                             l3454 0754                             l3446 073E  
                           l2494 0A30                             l3710 0162                             l3702 014C  
                           l3640 0C45                             l3632 0C29                             l3624 0C15  
                           l3288 0B08                             l3296 0948                             l3608 05D9  
                           l3560 0511                             l3552 04F3                             l3544 04D3  
                           l3536 04A8                             l3528 048D                             l3384 0367  
                           l3376 0354                             l3368 0342                             l3472 07CF  
                           l3464 076E                             l3456 0759                             l3448 0744  
                           l2496 0A34                             l3480 0605                             l3720 018C  
                           l3712 0171                             l3704 0151                             l3642 0C4C  
                           l3634 0C2D                             l3626 0C1B                             l3618 05F8  
                           l3562 051D                             l3554 04FA                             l3546 04DB  
                           l3538 04B5                             l3298 0E63                             l3386 036D  
                           l3474 07DB                             l3466 0785                             l2498 0A3A  
                           l3490 0633                             l3482 0613                             l3810 02DC  
                           l3730 019F                             l3722 0190                             l3714 0178  
                           l3706 0157                             l3650 004E                             l3636 0C3E  
                           l3628 0C1E                             l3644 0C52                             l3572 0541  
                           l3564 0526                             l3548 04DF                             l3556 0501  
                           l3396 0392                             l3388 037A                             l3468 079D  
                           l3492 063A                             l3484 0619                             l3740 01C8  
                           l3732 01A4                             l3716 017F                             l3708 015D  
                           l3724 0192                             l3660 005F                             l3652 004E  
                           l3638 0C44                             l3590 0591                             l3582 0560  
                           l3574 0548                             l3566 052C                             l3558 0509  
                           l3398 039C                             l3494 0642                             l3486 061A  
                           l3478 05FD                             l3806 02A6                             l3750 01E7  
                           l3742 01CD                             l3734 01B3                             l3726 0198  
                           l3718 0186                             l3670 00AB                             l3662 006B  
                           l3654 0050                             l3592 0598                             l3584 0570  
                           l3576 055C                             l3568 0534                             l3496 0647  
                           l3488 0620                             l3760 0212                             l3752 01ED  
                           l3744 01D3                             l3736 01B9                             l3808 02BE  
                           l3680 00D2                             l3672 00B1                             l3664 0077  
                           l3656 0051                             l3648 0046                             l3594 05A7  
                           l3586 0578                             l3498 0649                             l3770 022F  
                           l3762 0219                             l3746 01D8                             l3738 01BE  
                           l3690 0119                             l3682 00D8                             l3674 00B5  
                           l3666 0083                             l3658 0056                             l3596 05B6  
                           l3588 0585                             l3780 0241                             l3772 0236  
                           l3764 0220                             l3748 01E2                             l3756 01F2  
                           l3692 0120                             l3684 00EF                             l3676 00C0  
                           l3668 008F                             l3598 05C4                             l3790 0287  
                           l3782 025C                             l3774 023D                             l3766 0226  
                           l3758 0206                             l3694 0126                             l3686 00F5  
                           l3678 00C4                             l3960 02B9                             l3792 028D  
                           l3784 026C                             l3768 022A                             l3696 012B  
                           l3688 00FB                             l3962 02C8                             l3794 0292  
                           l3786 0277                             l3698 012D                             l3796 029E  
                           l3788 0282                             l3956 01FA                             l3958 0254  
                           _ADFM 04FF                             ?_isr 0070                             _ADON 00F8  
                           STR_1 090F                             STR_2 0915                             STR_3 0900  
                           STR_4 0903                             STR_5 0906                             STR_6 0909  
                           STR_7 08FD                             STR_8 0886                             STR_9 0835  
                           u1200 0AC0                             u1201 0ABF                             u1210 0AD1  
                           u1211 0AD0                             u1400 0C89                             u3000 0157  
                           u1401 0C88                             u3001 0156                             u1250 09A8  
                           u1410 0CA0                             u3010 015D                             u1251 09A7  
                           u1411 0C9F                             u3011 015C                             u1500 0FCC  
                           u1260 09B5                             u1420 09BF                             u3020 0198  
                           u1501 0FCB                             u1261 09B4                             u1421 09BE  
                           u3021 0197                             u1190 0AAD                             u1430 0BDD  
                           u3030 019E                             u1191 0AAC                             u1431 0BDC  
                           u3031 019D                             u1440 0BE9                             u1520 0FDD  
                           u1600 0D79                             u2320 0954                             u2400 0F41  
                           u1360 0D00                             u3040 0282                             u1441 0BE8  
                           u1521 0FDC                             u1601 0D78                             u2321 0953  
                           u2401 0F40                             u1361 0CFF                             u3041 0281  
                           u1450 0C0E                             u1610 0D83                             u2330 095A  
                           u1370 0D36                             u1451 0C0D                             u1515 0FCD  
                           u1611 0D82                             u2331 0959                             u1371 0D35  
                           u3107 044A                             u1540 0FF1                             u1460 0F9E  
                           u2340 0A20                             u2420 0F55                             u1380 0D43  
                           u2500 0302                             u1700 0A50                             u1541 0FF0  
                           u1525 0FD9                             u1461 0F9D                             u2341 0A1F  
                           u2421 0F54                             u1381 0D42                             u3117 0476  
                           u2501 0301                             u1701 0A4F                             u2350 07E7  
                           u1550 0FF6                             u1470 0FA9                             u1630 0D96  
                           u1390 0C82                             u2510 030A                             u2351 07E3  
                           u3207 05BE                             u1551 0FF5                             u1535 0FE5  
                           u1471 0FA8                             u1631 0D95                             u1615 0D7F  
                           u3127 0CA5                             u2415 0F46                             u1391 0C81  
                           u2511 0309                             u1480 0FBA                             u1640 0D9B  
                           u1560 0D51                             u2440 0F70                             u2520 0310  
                           u2600 0737                             u3217 05D6                             u1481 0FB9  
                           u1641 0D9A                             u1625 0D8A                             u1561 0D50  
                           u3137 0CB4                             u2441 0F6F                             u1385 0D3F  
                           u2521 030F                             u2601 0736                             u3057 0183  
                           u1570 0D5C                             u2530 0334                             u2610 073E  
                           u1650 0A57                             u3227 094A                             u1571 0D5B  
                           u3147 0CC2                             u2435 0F57                             u2531 0333  
                           u2611 073D                             u1651 0A56                             u3067 021D  
                           u2364 07EA                             u1580 0D67                             u2460 0F8E  
                           u2540 033A                             u2620 0744                             u1660 0A67  
                           u2700 0633                             u3237 07EF                             u1581 0D66  
                           u3157 0CD8                             u2461 0F8D                             u2445 0F6C  
                           u2541 0339                             u2621 0743                             u1661 0A66  
                           u2701 0632                             u3077 023A                             u2470 0B73  
                           u2550 0354                             u2630 0754                             u1670 0A6C  
                           u2710 0642                             u3247 07F9                             u1495 0FBE  
                           u2375 0DC9                             u3167 0CE4                             u2455 0F80  
                           u2551 0353                             u2631 0753                             u1671 0A6B  
                           u2711 0641                             u3087 02A2                             u2480 0B2E  
                           u2800 0509                             u2560 037A                             u2640 0759  
                           u1680 0A77                             u2720 0647                             u2481 0B2D  
                           u2801 0508                             u2385 0DDD                             u3177 0CF0  
                           u3097 03A7                             u2561 0379                             u2641 0758  
                           u1681 0A76                             u2721 0646                             u2705 062F  
                           u2810 052C                             u2570 0390                             u2490 02EC  
                           u2650 0764                             u1690 096F                             u2730 0680  
                           u2811 052B                             u3187 0BCB                             u1595 0D6B  
                           u2395 0DF1                             u2475 0B6E                             u2571 038F  
                           u2491 02EB                             u2651 0763                             u1691 096E  
                           u2731 067F                             u2820 0548                             u2740 0B9F  
                           u2580 039C                             u2660 07A3                             u3197 0595  
                           u2821 0547                             u2741 0B9E                             u2581 039B  
                           u2565 0376                             u2661 07A2                             u2910 0C52  
                           u2830 055C                             u2750 048B                             u2590 040E  
                           u2670 0605                             u2911 0C51                             u2831 055B  
                           u2751 048A                             u2591 040D                             u2735 067C  
                           u2671 0604                             u2840 0585                             u2760 049E  
                           u2680 0619                             u2920 00B1                             u2905 0C46  
                           u2841 0584                             u2761 049D                             u2681 0618  
                           u2921 00B0                             u2850 0C1B                             u2770 04A6  
                           u2690 0620                             u2930 00D2                             u2851 0C1A  
                           u2771 04A5                             u2691 061F                             u2931 00D1  
                           _PEIE 005E                             u2780 04D3                             u2940 00D8  
                           u2845 0581                             u2781 04D2                             u2765 049A  
                           u2941 00D7                             u2870 0C2D                             u2790 04DB  
                           u2950 00F5                             u2871 0C2C                             u2791 04DA  
                           u2951 00F4                             u2960 00FB                             u2865 0C1F  
                           u2785 04CF                             u2961 00FA                             u2890 0C3E  
                           u2970 0126                             u2891 0C3D                             u2971 0125  
                           u2980 012B                             _RCEN 048B                             u2885 0C2E  
                           u2981 012A                             u2990 0151                             u2895 0C3A  
                           u2991 0150                   ??_eeprom_write 0073                             _R_nW 04A2  
                           _gear 00B4       __end_of_display_dash_board 0E63                             _main 0046  
                           _menu 0065                             _time 0056                             btemp 007E  
                           start 000C                ___bmul@multiplier 0075                   clcd_write@byte 0075  
                 clcd_write@mode 0072                    _i2c_rep_start 17EA                            ??_isr 0070  
                   ?_init_ds1307 0070                            ?_main 0070                     ?_read_ds1307 0070  
                          _ACKEN 048C                            _ACKDT 048D                   ??_display_time 0026  
                __end_of___awdiv 1000                            _EEADR 010D                            STR_10 090C  
                          STR_11 0912                            STR_20 0886                            STR_12 08E5  
                          STR_21 08EE                            STR_13 08DB                            STR_22 08B4  
                          STR_14 08A5                            STR_23 08CE                            STR_15 0813  
                          STR_16 0856                            STR_24 0800                            STR_25 08C1  
                          STR_17 0846                            STR_18 0896                            STR_26 0824  
                          STR_27 08CE                            STR_19 0876                            STR_28 0866  
                __end_of___awmod 0DA5                            STR_29 08F6                  __end_of___lldiv 0F97  
                    i2c_read@ack 0073                  ___awdiv@divisor 0072                  __end_of___lwdiv 0C57  
                          i1l408 0B5B                     ?_init_config 0070                  ___awdiv@counter 0020  
                          _PORTB 0006                            _PORTD 0008                            _SSPM3 00A3  
                          _TRISB 0086                            _TRISD 0088                            _SSPEN 00A5  
                   ?_init_timer2 0070                     main@menu_pos 003E                            _nDONE 00FA  
           __end_of_clear_screen 094E                     view_log@addr 0035                            _login 02E3  
                          main@j 003C                     view_log@rlog 002A                  _change_password 0482  
                   view_log@rpos 0050                            pclath 000A             login_menu@reset_flag 0026  
                          status 0003                            wtemp0 007E                  __end_of_strncmp 0C11  
                __end_of_strncpy 0CA1                 init_ds1307@dummy 0020                  __initialization 000F  
                 ?_i2c_rep_start 0070                     __end_of_main 02E3                   login@npassword 0061  
               __end_of_i2c_read 0A2A                 __end_of_i2c_stop 17E0                           ??_main 0039  
                 login@spassword 005D                           _ADRESH 001E                           ?_login 0026  
                         _ADRESL 009E                           _EEDATA 010C                           _EECON1 018C  
                         _EECON2 018D                 ___awdiv@dividend 0074                     i2c_read@data 0074  
                         i1l3020 0B46                           i1l3022 0B4B                           i1l3030 0B5A  
                         i1l3014 0B2F                           i1l3024 0B4E                           i1l3016 0B35  
                         i1l3026 0B53                           i1l3018 0B44                           i1l3028 0B58  
                         u230_20 0B53                           u230_21 0B52                           u231_20 0B58  
                         u231_21 0B57                           u227_20 0B35                           u227_21 0B34  
                         u228_20 0B44                           u228_21 0B43                           u229_20 0B4B  
                         u229_21 0B4A                     _write_ds1307 09E9                           _TMR2IE 0461  
                         _TMR2IF 0061                           _TMR2ON 0092                           _SSPADD 0093  
                         _TRISE1 0449                           _TRISE2 044A                           _SSPBUF 0013  
                  login_menu@key 002A      __end_of_init_digital_keypad 17BF                 __end_of_get_time 0E04  
                         ___bmul 09A2          _init_display_controller 0CA1                        ??___awdiv 0076  
                      ??___awmod 0076                        ??___lldiv 0072        change_password@reset_flag 0026  
                      ??___lwdiv 0076                 __end_of_init_i2c 0B96                 __end_of_init_adc 17C6  
               __end_of_read_adc 097A                 ___awdiv@quotient 0022                  ___awmod@divisor 0072  
           __end_of_eeprom_write 0AD3                  ___awmod@counter 0077                           main@gr 0042  
                         _strcpy 0A2A                     __pdataCOMMON 007B                           login@i 0052  
                         login@j 002B          __end_of_change_password 05FA                           saved_w 007E  
               __end_of_view_log 072E                        ??_strncmp 0075                        ??_strncpy 0076  
        __end_of__initialization 0042                  eeprom_read@addr 0073             __end_of_display_time 0EC9  
                ??_i2c_rep_start 0072              ___bmul@multiplicand 0072                   __pcstackCOMMON 0070  
                   __pidataBANK0 17E0                     __pidataBANK1 0935                    __end_of_login 0482  
                login@reset_flag 0026                __end_of_i2c_start 17D7                __end_of_i2c_write 1800  
              eeprom_write@value 0072                _i2c_wait_for_idle 094E                          ??_login 0027  
             ?_i2c_wait_for_idle 0070                       __pbssBANK0 0047                       __pbssBANK1 00A0  
                      ?_i2c_read 0070                        ?_i2c_stop 0070        ??_init_display_controller 0076  
                     _clcd_print 0B00              ??_i2c_wait_for_idle 0072                       _clcd_putch 098D  
                     _clcd_write 07DF                       __pmaintext 0046                  read_ds1307@addr 0076  
                  _log_car_event 0EC9                  read_ds1307@data 0077                     _clear_screen 0941  
                        ?___bmul 0072                       __pintentry 0004               _display_dash_board 0E04  
                        _ACKSTAT 048E                          ?_strcpy 0072                          _T2CKPS0 0090  
                        _T2CKPS1 0091              ?_display_dash_board 0027      __end_of_read_digital_keypad 0A7B  
               ?_change_password 0026        __end_of_i2c_wait_for_idle 095B                     init_i2c@baud 0028  
                        _SSPCON2 0091                        ?_get_time 0070                       __stringtab 0918  
                     ??_i2c_read 0072                       ??_i2c_stop 0072                        ?_init_i2c 0028  
                      ?_init_adc 0070                        ?_read_adc 0072                __end_of_clear_log 0BD3  
           ??_display_dash_board 0028                   ?_log_car_event 0024               change_password@key 002A  
             change_password@pos 004C               change_password@pwd 00AB                          ___awdiv 0F97  
                        ___awmod 0D4C                        ?_view_log 0026                          ___lldiv 0F2F  
                        ___lwdiv 0C11                 main@control_flag 0043                          __ptext1 05FA  
                        __ptext2 0A2A                          __ptext3 0A51                          __ptext4 0968  
                        __ptext5 072E                          __ptext6 02E3                          __ptext7 09B7  
                        __ptext8 0EC9                          __ptext9 0C57                 login@attempt_rem 0053  
__end_of_init_display_controller 0CF4                __end_of_init_clcd 0935                 ___awmod@dividend 0074  
                 main@reset_flag 0044                __end_of_log_event 0D4C                       _login_menu 072E  
                        main@key 0046                          clrloop0 17C7                       ??_get_time 0020  
                        _strncmp 0BD3                          _strncpy 0C57             end_of_initialization 0042  
                     ??_init_i2c 002C                       ??_init_adc 0072                     _eeprom_write 0AA6  
                     ??_read_adc 0074                      ?_clcd_print 0076                      ?_clcd_putch 0024  
                ___lldiv@divisor 0020                      ?_clcd_write 0072                  ___lldiv@counter 0077  
                     ??_view_log 0027                     __pstringtext 0800                     _display_time 0E63  
                  i2c_write@data 0072                    clcd_print@str 0076                    ??_eeprom_read 0072  
                ??_log_car_event 0025                   __end_of___bmul 09B7                    __pidataCOMMON 07FF  
                    view_log@key 0036                   __end_of_strcpy 0A51              start_initialization 000F  
                    ?_login_menu 0026                        _i2c_start 17CE                      __end_of_isr 0B62  
                      _i2c_write 17F5                 change_password@i 002B            __end_of_i2c_rep_start 17F5  
                       ??___bmul 0073              __end_of_eeprom_read 09CE                       init_fetch0 097A  
                  ??_init_ds1307 0078                      __pdataBANK0 0065                      __pdataBANK1 00B4  
                  ??_read_ds1307 0075                         ??_strcpy 0074                    ??_init_config 0079  
                     log_event@i 0021                    ??_init_timer2 0072                      __pbssCOMMON 0079  
                      ___latbits 0002                    __pcstackBANK0 0020                       ?_i2c_start 0070  
                     ?_i2c_write 0070          display_dash_board@event 002B          display_dash_board@speed 0027  
               eeprom_write@addr 0074                 ___lwdiv@dividend 0022                        _clear_log 0B96  
                       ?___awdiv 0072                         ?___awmod 0072                         ?___lldiv 0020  
                       ?___lwdiv 0020                        _clock_reg 0047                        __pstrings 0918  
            __end_of_init_ds1307 09E9              read_adc@adc_reg_val 0074              __end_of_read_ds1307 0B00  
               ___lwdiv@quotient 0025                        _init_clcd 092A              __end_of_init_config 0AA6  
                       ?_strncmp 0072                         ?_strncpy 0072                        _log_event 0CF4  
                  ?_write_ds1307 0073              __end_of_init_timer2 0968         ?_init_display_controller 0070  
              interrupt_function 0004                        clear_ram0 17C6                      strncpy@from 0072  
                    _eeprom_read 09B7                      strncpy@size 0074                     ??_clcd_print 0079  
                   ??_clcd_putch 0079                     ??_clcd_write 0073                       ?_clear_log 0070  
                      main@F1018 006B                      __stringbase 092A                        main@event 003F  
                      main@speed 0045                      ??_i2c_start 0072               __end_of_clcd_print 0B2F  
                    ??_i2c_write 0072               __end_of_clcd_putch 09A2               __end_of_clcd_write 07FF  
                     ?_init_clcd 0070                   ??_write_ds1307 0074                       ?_log_event 0070  
            _init_digital_keypad 17B9                         _i2c_read 0A07                         _i2c_stop 17D7  
                     _EECON1bits 018C              change_password@once 004A             ?_init_digital_keypad 0070  
                    _init_ds1307 09CE                      _event_count 004E               __end_of__stringtab 092A  
                    _read_ds1307 0AD3                      _init_config 0A7B                     ??_login_menu 0027  
                    _init_timer2 095B                  ___lwdiv@divisor 0020                  ___lwdiv@counter 0024  
                       __ptext10 0CF4                         __ptext11 09A2                         __ptext20 0CA1  
                       __ptext12 0A7B                         __ptext21 17BF                         __ptext13 095B  
                       __ptext30 0A07                         __ptext22 0E04                         __ptext14 0B62  
                       __ptext31 094E                         __ptext23 0E63                         __ptext15 0F2F  
                       __ptext40 0B00                         __ptext32 0D4C                         __ptext24 0DA5  
                       __ptext16 09CE                         __ptext41 07DF                         __ptext33 0F97  
                       __ptext25 0AD3                         __ptext17 09E9                         __ptext42 0C11  
                       __ptext34 0B96                         __ptext26 17F5                         __ptext18 17B9  
                       __ptext43 0B2F                         __ptext35 0482                         __ptext27 17EA  
                       __ptext19 092A                         __ptext36 0BD3                         __ptext28 17D7  
                       __ptext37 0AA6                         __ptext29 17CE                         __ptext38 0941  
                       __ptext39 098D                         _get_time 0DA5                       strcpy@from 0072  
                       _init_i2c 0B62                         _init_adc 17BF                         _read_adc 0968  
        read_digital_keypad@mode 0073          read_digital_keypad@once 007B                       strncmp@len 0073  
          __end_of_log_car_event 0F2F                      ??_clear_log 0020                ??_change_password 0027  
                  ?_clear_screen 0070               __end_of_login_menu 07DF                         _view_log 05FA  
          ??_init_digital_keypad 0072                        view_log@i 0037                       _INTCONbits 000B  
                       isr@count 0079                         init_ram0 097E                      ??_init_clcd 0078  
                       login@key 002A                      ??_log_event 0076                         intlevel1 0000  
               ___lldiv@dividend 0024                        strncmp@s1 0077                        strncmp@s2 0072  
                      stringcode 0922                   ??_clear_screen 0076                        strncpy@cp 0021  
                      strncpy@to 0020             __end_of_write_ds1307 0A07              _read_digital_keypad 0A51  
               ___lldiv@quotient 0073                         strcpy@cp 0075                         strcpy@to 0076  
                       stringtab 0918                      _return_time 0055             ?_read_digital_keypad 0070  
               write_ds1307@addr 0074                 write_ds1307@data 0073                    ?_eeprom_write 0072  
                     _STATUSbits 0003                     ?_eeprom_read 0070  
